

Microchip Technology PIC18 LITE Macro Assembler V1.34 build -361300703 
                                                                                               Fri Mar 18 17:29:07 2016

Microchip Technology Omniscient Code Generator (Lite mode) build 201502162209
     1                           	processor	18F4525
     2                           	fnconf	rparam,??,?,0
     3                           	opt	pw 120
     4                           	opt	lm
     5                           	psect	smallconst,global,reloc=2,class=SMALLCONST,delta=1
     6                           	psect	cinit,global,reloc=2,class=CODE,delta=1
     7                           	psect	bssCOMRAM,global,class=COMRAM,space=1,delta=1
     8                           	psect	cstackCOMRAM,global,class=COMRAM,space=1,delta=1
     9                           	psect	text0,global,reloc=2,class=CODE,delta=1
    10                           	psect	text1,global,reloc=2,class=CODE,delta=1
    11                           	psect	text2,global,reloc=2,class=CODE,delta=1
    12                           	psect	text3,global,reloc=2,class=CODE,delta=1
    13                           	psect	text4,global,reloc=2,class=CODE,delta=1
    14                           	psect	text5,global,reloc=2,class=CODE,delta=1
    15                           	psect	text6,global,reloc=2,class=CODE,delta=1
    16                           	psect	text7,global,reloc=2,class=CODE,delta=1
    17                           	psect	text8,global,reloc=2,class=CODE,delta=1
    18                           	psect	text9,global,reloc=2,class=CODE,delta=1
    19                           	psect	text10,global,reloc=2,class=CODE,delta=1
    20                           	psect	text11,global,reloc=2,class=CODE,delta=1
    21                           	psect	text12,global,reloc=2,class=CODE,delta=1
    22                           	psect	text13,global,reloc=2,class=CODE,delta=1
    23                           	psect	text14,global,reloc=2,class=CODE,delta=1
    24                           	psect	text15,global,reloc=2,class=CODE,delta=1
    25                           	psect	text16,global,reloc=2,class=CODE,delta=1
    26                           	psect	text17,global,reloc=2,class=CODE,delta=1
    27                           	psect	text18,global,reloc=2,class=CODE,delta=1
    28                           	psect	text19,global,reloc=2,class=CODE,delta=1
    29                           	psect	text20,global,reloc=2,class=CODE,delta=1
    30                           	psect	text21,global,reloc=2,class=CODE,delta=1
    31                           	psect	text22,global,reloc=2,class=CODE,delta=1
    32                           	psect	text23,global,reloc=2,class=CODE,delta=1
    33                           	psect	text24,global,reloc=2,class=CODE,delta=1
    34                           	psect	text25,global,reloc=2,class=CODE,delta=1
    35                           	psect	text26,global,reloc=2,class=CODE,delta=1
    36                           	psect	text27,global,reloc=2,class=CODE,delta=1
    37                           	psect	text28,global,reloc=2,class=CODE,delta=1
    38                           	psect	text29,global,reloc=2,class=CODE,delta=1
    39                           	psect	text30,global,reloc=2,class=CODE,delta=1
    40                           	psect	text31,global,reloc=2,class=CODE,delta=1
    41                           	psect	text32,global,reloc=2,class=CODE,delta=1
    42                           	psect	text33,global,reloc=2,class=CODE,delta=1
    43                           	psect	text34,global,reloc=2,class=CODE,delta=1
    44                           	psect	text35,global,reloc=2,class=CODE,delta=1
    45                           	psect	text36,global,reloc=2,class=CODE,delta=1
    46                           	psect	text37,global,reloc=2,class=CODE,delta=1
    47                           	psect	text38,global,reloc=2,class=CODE,delta=1
    48                           	psect	text39,global,reloc=2,class=CODE,delta=1
    49                           	psect	text40,global,reloc=2,class=CODE,delta=1
    50                           	psect	text41,global,reloc=2,class=CODE,delta=1
    51                           	psect	text42,global,reloc=2,class=CODE,delta=1
    52                           	psect	text43,global,reloc=2,class=CODE,delta=1
    53                           	psect	text44,global,reloc=2,class=CODE,delta=1
    54                           	psect	text45,global,reloc=2,class=CODE,delta=1
    55                           	psect	text46,global,reloc=2,class=CODE,delta=1
    56                           	psect	text47,global,reloc=2,class=CODE,delta=1
    57                           	psect	text48,global,reloc=2,class=CODE,delta=1
    58                           	psect	intcode,global,reloc=2,class=CODE,delta=1
    59                           	psect	intcode_body,global,reloc=2,class=CODE,delta=1
    60                           	psect	intsave_regs,global,class=BIGRAM,space=1,delta=1
    61                           	psect	rparam,global,class=COMRAM,space=1,delta=1
    62  0000                     
    63                           	psect	smallconst
    64  001000                     __psmallconst:
    65                           	opt stack 0
    66  001000  00                 	db	0
    67  001001                     set_motor_speed@motor_speeds:
    68                           	opt stack 0
    69  001001  FCE0               	dw	64736
    70  001003  FD2B               	dw	64811
    71  001005  FD76               	dw	64886
    72  001007  0000               	dw	0
    73  001009  028A               	dw	650
    74  00100B  02D5               	dw	725
    75  00100D  0320               	dw	800
    76  00100F                     __end_ofset_motor_speed@motor_speeds:
    77                           	opt stack 0
    78  0000                     _ADCON0	set	4034
    79  0000                     _ADCON0bits	set	4034
    80  0000                     _ADCON1	set	4033
    81  0000                     _ADCON2	set	4032
    82  0000                     _ADRESH	set	4036
    83  0000                     _ADRESL	set	4035
    84  0000                     _CCP1CON	set	4029
    85  0000                     _CCP2CON	set	4026
    86  0000                     _CCPR1L	set	4030
    87  0000                     _CCPR2L	set	4027
    88  0000                     _HLVDCONbits	set	4050
    89  0000                     _INTCONbits	set	4082
    90  0000                     _IPR2bits	set	4002
    91  0000                     _OSCCONbits	set	4051
    92  0000                     _OSCTUNEbits	set	3995
    93  0000                     _PIE1bits	set	3997
    94  0000                     _PIE2bits	set	4000
    95  0000                     _PIR1bits	set	3998
    96  0000                     _PIR2bits	set	4001
    97  0000                     _PORTCbits	set	3970
    98  0000                     _PORTD	set	3971
    99  0000                     _PORTDbits	set	3971
   100  0000                     _PORTEbits	set	3972
   101  0000                     _PR2	set	4043
   102  0000                     _RCONbits	set	4048
   103  0000                     _RCSTA	set	4011
   104  0000                     _RCSTAbits	set	4011
   105  0000                     _SPBRG	set	4015
   106  0000                     _SPBRGH	set	4016
   107  0000                     _STKPTRbits	set	4092
   108  0000                     _T2CON	set	4042
   109  0000                     _T2CONbits	set	4042
   110  0000                     _TMR2	set	4044
   111  0000                     _TRISA	set	3986
   112  0000                     _TRISB	set	3987
   113  0000                     _TRISBbits	set	3987
   114  0000                     _TRISC	set	3988
   115  0000                     _TRISCbits	set	3988
   116  0000                     _TRISD	set	3989
   117  0000                     _TRISE	set	3990
   118  0000                     _TXSTA	set	4012
   119  0000                     _TXSTAbits	set	4012
   120  00100F                     STR_1:
   121  00100F  0A                 	db	10
   122  001010  0D                 	db	13
   123  001011  4B                 	db	75	;'K'
   124  001012  77                 	db	119	;'w'
   125  001013  61                 	db	97	;'a'
   126  001014  6E                 	db	110	;'n'
   127  001015  74                 	db	116	;'t'
   128  001016  6C                 	db	108	;'l'
   129  001017  65                 	db	101	;'e'
   130  001018  6E                 	db	110	;'n'
   131  001019  20                 	db	32
   132  00101A  41                 	db	65	;'A'
   133  00101B  50                 	db	80	;'P'
   134  00101C  53                 	db	83	;'S'
   135  00101D  43                 	db	67	;'C'
   136  00101E  31                 	db	49	;'1'
   137  00101F  32                 	db	50	;'2'
   138  001020  39                 	db	57	;'9'
   139  001021  39                 	db	57	;'9'
   140  001022  20                 	db	32
   141  001023  73                 	db	115	;'s'
   142  001024  69                 	db	105	;'i'
   143  001025  6D                 	db	109	;'m'
   144  001026  70                 	db	112	;'p'
   145  001027  6C                 	db	108	;'l'
   146  001028  65                 	db	101	;'e'
   147  001029  20                 	db	32
   148  00102A  63                 	db	99	;'c'
   149  00102B  75                 	db	117	;'u'
   150  00102C  72                 	db	114	;'r'
   151  00102D  76                 	db	118	;'v'
   152  00102E  65                 	db	101	;'e'
   153  00102F  20                 	db	32
   154  001030  66                 	db	102	;'f'
   155  001031  6F                 	db	111	;'o'
   156  001032  6C                 	db	108	;'l'
   157  001033  6C                 	db	108	;'l'
   158  001034  6F                 	db	111	;'o'
   159  001035  77                 	db	119	;'w'
   160  001036  65                 	db	101	;'e'
   161  001037  72                 	db	114	;'r'
   162  001038  20                 	db	32
   163  001039  2D                 	db	45
   164  00103A  2D                 	db	45
   165  00103B  20                 	db	32
   166  00103C  77                 	db	119	;'w'
   167  00103D  69                 	db	105	;'i'
   168  00103E  74                 	db	116	;'t'
   169  00103F  68                 	db	104	;'h'
   170  001040  20                 	db	32
   171  001041  65                 	db	101	;'e'
   172  001042  72                 	db	114	;'r'
   173  001043  72                 	db	114	;'r'
   174  001044  6F                 	db	111	;'o'
   175  001045  72                 	db	114	;'r'
   176  001046  20                 	db	32
   177  001047  63                 	db	99	;'c'
   178  001048  6F                 	db	111	;'o'
   179  001049  64                 	db	100	;'d'
   180  00104A  65                 	db	101	;'e'
   181  00104B  73                 	db	115	;'s'
   182  00104C  0A                 	db	10
   183  00104D  0D                 	db	13
   184  00104E  00                 	db	0
   185  00104F                     STR_6:
   186  00104F  20                 	db	32
   187  001050  3C                 	db	60	;'<'
   188  001051  72                 	db	114	;'r'
   189  001052  65                 	db	101	;'e'
   190  001053  73                 	db	115	;'s'
   191  001054  65                 	db	101	;'e'
   192  001055  74                 	db	116	;'t'
   193  001056  3E                 	db	62	;'>'
   194  001057  20                 	db	32
   195  001058  00                 	db	0
   196  001059                     STR_5:
   197  001059  3C                 	db	60	;'<'
   198  00105A  53                 	db	83	;'S'
   199  00105B  54                 	db	84	;'T'
   200  00105C  4B                 	db	75	;'K'
   201  00105D  46                 	db	70	;'F'
   202  00105E  55                 	db	85	;'U'
   203  00105F  4C                 	db	76	;'L'
   204  001060  3E                 	db	62	;'>'
   205  001061  00                 	db	0
   206  001062                     STR_4:
   207  001062  3C                 	db	60	;'<'
   208  001063  57                 	db	87	;'W'
   209  001064  44                 	db	68	;'D'
   210  001065  54                 	db	84	;'T'
   211  001066  20                 	db	32
   212  001067  54                 	db	84	;'T'
   213  001068  4F                 	db	79	;'O'
   214  001069  3E                 	db	62	;'>'
   215  00106A  00                 	db	0
   216  00106B                     STR_7:
   217  00106B  5C                 	db	92	;'\'
   218  00106C  3C                 	db	60	;'<'
   219  00106D  4C                 	db	76	;'L'
   220  00106E  56                 	db	86	;'V'
   221  00106F  44                 	db	68	;'D'
   222  001070  3E                 	db	62	;'>'
   223  001071  00                 	db	0
   224  001072                     STR_3:
   225  001072  3C                 	db	60	;'<'
   226  001073  42                 	db	66	;'B'
   227  001074  4F                 	db	79	;'O'
   228  001075  52                 	db	82	;'R'
   229  001076  3E                 	db	62	;'>'
   230  001077  00                 	db	0
   231  001078                     STR_2:
   232  001078  3C                 	db	60	;'<'
   233  001079  50                 	db	80	;'P'
   234  00107A  4F                 	db	79	;'O'
   235  00107B  52                 	db	82	;'R'
   236  00107C  3E                 	db	62	;'>'
   237  00107D  00                 	db	0
   238                           
   239                           ; #config settings
   240  00107E  00                 	db	0	; dummy byte at the end
   241  0000                     
   242                           	psect	cinit
   243  001A9C                     __pcinit:
   244                           	opt stack 0
   245  001A9C                     start_initialization:
   246                           	opt stack 0
   247  001A9C                     __initialization:
   248                           	opt stack 0
   249                           
   250                           ; Clear objects allocated to COMRAM (4 bytes)
   251  001A9C  6A20               	clrf	(__pbssCOMRAM+3)& (0+255),c
   252  001A9E  6A1F               	clrf	(__pbssCOMRAM+2)& (0+255),c
   253  001AA0  6A1E               	clrf	(__pbssCOMRAM+1)& (0+255),c
   254  001AA2  6A1D               	clrf	__pbssCOMRAM& (0+255),c
   255  001AA4                     end_of_initialization:
   256                           	opt stack 0
   257  001AA4                     __end_of__initialization:
   258                           	opt stack 0
   259  001AA4  0100               	movlb	0
   260  001AA6  EF3E  F00B         	goto	_main	;jump to C main() function
   261                           
   262                           	psect	bssCOMRAM
   263  00001D                     __pbssCOMRAM:
   264                           	opt stack 0
   265  00001D                     _threshold:
   266                           	opt stack 0
   267  00001D                     	ds	2
   268  00001F                     _SeeLine:
   269                           	opt stack 0
   270  00001F                     	ds	1
   271  000020                     _lvd_flag:
   272                           	opt stack 0
   273  000020                     	ds	1
   274                           
   275                           	psect	cstackCOMRAM
   276  000001                     __pcstackCOMRAM:
   277                           	opt stack 0
   278  000001                     ??_high_isr:
   279  000001                     
   280                           ; 1 bytes @ 0x0
   281  000001                     	ds	14
   282  00000F                     ??_set_leds:
   283  00000F                     ??_SetChanADC:
   284  00000F                     ??_WaitOneSecond:
   285  00000F                     ?_printf:
   286                           	opt stack 0
   287  00000F                     ?_ReadADC:
   288                           	opt stack 0
   289  00000F                     OpenADC@config2:
   290                           	opt stack 0
   291  00000F                     OpenPWM1@period:
   292                           	opt stack 0
   293  00000F                     OpenPWM2@period:
   294                           	opt stack 0
   295  00000F                     OpenTimer2@config:
   296                           	opt stack 0
   297  00000F                     set_osc_32MHz@i:
   298                           	opt stack 0
   299  00000F                     printf@f:
   300                           	opt stack 0
   301  00000F                     SetDCPWM1@dutycycle:
   302                           	opt stack 0
   303  00000F                     SetDCPWM2@dutycycle:
   304                           	opt stack 0
   305  00000F                     OpenUSART@spbrg:
   306                           	opt stack 0
   307  00000F                     gtrap@count:
   308                           	opt stack 0
   309                           
   310                           ; 4 bytes @ 0xE
   311  00000F                     	ds	1
   312  000010                     OpenADC@portconfig:
   313                           	opt stack 0
   314  000010                     SetChanADC@channel:
   315                           	opt stack 0
   316  000010                     OpenPWM2@ccp2mx:
   317                           	opt stack 0
   318  000010                     WaitOneSecond@i:
   319                           	opt stack 0
   320                           
   321                           ; 2 bytes @ 0xF
   322  000010                     	ds	1
   323  000011                     ??_OpenADC:
   324  000011                     ??_SetDCPWM1:
   325  000011                     ??_SetDCPWM2:
   326  000011                     ??_ReadADC:
   327  000011                     OpenUSART@config:
   328                           	opt stack 0
   329  000011                     printf@ap:
   330                           	opt stack 0
   331                           
   332                           ; 2 bytes @ 0x10
   333  000011                     	ds	2
   334  000013                     ?_adc:
   335                           	opt stack 0
   336  000013                     printf@c:
   337                           	opt stack 0
   338  000013                     OpenADC@config:
   339                           	opt stack 0
   340  000013                     SetDCPWM1@DCycle:
   341                           	opt stack 0
   342  000013                     SetDCPWM2@DCycle:
   343                           	opt stack 0
   344                           
   345                           ; 2 bytes @ 0x12
   346  000013                     	ds	1
   347  000014                     PORtask@count1:
   348                           	opt stack 0
   349                           
   350                           ; 4 bytes @ 0x13
   351  000014                     	ds	1
   352  000015                     set_motor_speed@motor_speed:
   353                           	opt stack 0
   354  000015                     adc@channel:
   355                           	opt stack 0
   356                           
   357                           ; 1 bytes @ 0x14
   358  000015                     	ds	1
   359  000016                     ??_check_sensors:
   360  000016                     set_motor_speed@speed_modifier:
   361                           	opt stack 0
   362                           
   363                           ; 2 bytes @ 0x15
   364  000016                     	ds	2
   365  000018                     ??_set_motor_speed:
   366  000018                     PORtask@count2:
   367                           	opt stack 0
   368                           
   369                           ; 4 bytes @ 0x17
   370  000018                     	ds	1
   371  000019                     set_motor_speed@the_motor:
   372                           	opt stack 0
   373                           
   374                           ; 1 bytes @ 0x18
   375  000019                     	ds	1
   376  00001A                     set_motor_speed@dir_modifier:
   377                           	opt stack 0
   378                           
   379                           ; 1 bytes @ 0x19
   380  00001A                     	ds	1
   381  00001B                     set_motor_speed@duty_cycle:
   382                           	opt stack 0
   383                           
   384                           ; 2 bytes @ 0x1A
   385  00001B                     	ds	1
   386  00001C                     
   387                           ; 0 bytes @ 0x1B
   388  00001C                     	ds	1
   389  00001D                     
   390                           ; 0 bytes @ 0x1C
   391 ;;
   392 ;;Main: autosize = 0, tempsize = 0, incstack = 0, save=0
   393 ;;
   394 ;; *************** function _main *****************
   395 ;; Defined at:
   396 ;;		line 11 in file "main.c"
   397 ;; Parameters:    Size  Location     Type
   398 ;;		None
   399 ;; Auto vars:     Size  Location     Type
   400 ;;		None
   401 ;; Return value:  Size  Location     Type
   402 ;;		None               void
   403 ;; Registers used:
   404 ;;		wreg, status,2, status,0, tblptrl, tblptrh, tblptru, prodl, prodh, cstack
   405 ;; Tracked objects:
   406 ;;		On entry : 0/0
   407 ;;		On exit  : 0/0
   408 ;;		Unchanged: 0/0
   409 ;; Data sizes:     COMRAM   BANK0   BANK1   BANK2   BANK3   BANK4   BANK5   BANK6   BANK7   BANK8   BANK9  BANK10  BANK1
      +1  BANK12  BANK13  BANK14  BANK15
   410 ;;      Params:         0       0       0       0       0       0       0       0       0       0       0       0       
      +0       0       0       0       0
   411 ;;      Locals:         0       0       0       0       0       0       0       0       0       0       0       0       
      +0       0       0       0       0
   412 ;;      Temps:          0       0       0       0       0       0       0       0       0       0       0       0       
      +0       0       0       0       0
   413 ;;      Totals:         0       0       0       0       0       0       0       0       0       0       0       0       
      +0       0       0       0       0
   414 ;;Total ram usage:        0 bytes
   415 ;; Hardware stack levels required when called:    6
   416 ;; This function calls:
   417 ;;		_LVtrap
   418 ;;		_check_sensors
   419 ;;		_initialization
   420 ;;		_lvd_flag_set
   421 ;;		_motor_control
   422 ;;		_printf
   423 ;;		_set_leds
   424 ;; This function is called by:
   425 ;;		Startup code after reset
   426 ;; This function uses a non-reentrant model
   427 ;;
   428                           
   429                           	psect	text0
   430  00167C                     __ptext0:
   431                           	opt stack 0
   432  00167C                     _main:
   433                           	opt stack 25
   434                           
   435                           ;main.c: 14: initialization();
   436                           
   437                           ;incstack = 0
   438  00167C  ECBF  F009         	call	_initialization	;wreg free
   439                           
   440                           ;main.c: 19: printf("\n\rKwantlen APSC1299 simple curve follower -- with error codes\n\r
      +                          ");
   441  001680  0E0F               	movlw	low STR_1
   442  001682  6E0F               	movwf	printf@f,c
   443  001684  0E10               	movlw	high STR_1
   444  001686  6E10               	movwf	printf@f+1,c
   445  001688  ECEB  F00B         	call	_printf	;wreg free
   446  00168C  0004               	clrwdt		;# 
   447                           
   448                           ;main.c: 22: threshold = 500u;
   449  00168E  0E01               	movlw	1
   450  001690  6E1E               	movwf	_threshold+1,c
   451  001692  0EF4               	movlw	244
   452  001694  6E1D               	movwf	_threshold,c
   453  001696  D000               	goto	l2068
   454  001698                     l2068:
   455                           
   456                           ;main.c: 26: {
   457                           ;main.c: 27: check_sensors();
   458  001698  ECA7  F008         	call	_check_sensors	;wreg free
   459                           
   460                           ;main.c: 28: set_leds();
   461  00169C  EC07  F00A         	call	_set_leds	;wreg free
   462                           
   463                           ;main.c: 33: motor_control();
   464  0016A0  EC40  F008         	call	_motor_control	;wreg free
   465  0016A4  0004               	clrwdt		;# 
   466                           
   467                           ;main.c: 35: if(lvd_flag_set()) LVtrap();
   468  0016A6  EC63  F00D         	call	_lvd_flag_set	;wreg free
   469  0016AA  0900               	iorlw	0
   470  0016AC  B4D8               	btfsc	status,2,c
   471  0016AE  D7F4               	goto	l2068
   472  0016B0  ECD2  F00C         	call	_LVtrap	;wreg free
   473  0016B4  D7F1               	goto	l2068
   474  0016B6  EF0C  F000         	goto	start
   475  0016BA                     __end_of_main:
   476                           	opt stack 0
   477                           status	equ	0xFD8
   478                           
   479 ;; *************** function _set_leds *****************
   480 ;; Defined at:
   481 ;;		line 255 in file "sumovore.c"
   482 ;; Parameters:    Size  Location     Type
   483 ;;		None
   484 ;; Auto vars:     Size  Location     Type
   485 ;;		None
   486 ;; Return value:  Size  Location     Type
   487 ;;		None               void
   488 ;; Registers used:
   489 ;;		wreg, status,2, status,0
   490 ;; Tracked objects:
   491 ;;		On entry : 0/0
   492 ;;		On exit  : 0/0
   493 ;;		Unchanged: 0/0
   494 ;; Data sizes:     COMRAM   BANK0   BANK1   BANK2   BANK3   BANK4   BANK5   BANK6   BANK7   BANK8   BANK9  BANK10  BANK1
      +1  BANK12  BANK13  BANK14  BANK15
   495 ;;      Params:         0       0       0       0       0       0       0       0       0       0       0       0       
      +0       0       0       0       0
   496 ;;      Locals:         0       0       0       0       0       0       0       0       0       0       0       0       
      +0       0       0       0       0
   497 ;;      Temps:          1       0       0       0       0       0       0       0       0       0       0       0       
      +0       0       0       0       0
   498 ;;      Totals:         1       0       0       0       0       0       0       0       0       0       0       0       
      +0       0       0       0       0
   499 ;;Total ram usage:        1 bytes
   500 ;; Hardware stack levels used:    1
   501 ;; Hardware stack levels required when called:    1
   502 ;; This function calls:
   503 ;;		Nothing
   504 ;; This function is called by:
   505 ;;		_main
   506 ;; This function uses a non-reentrant model
   507 ;;
   508                           
   509                           	psect	text1
   510  00140E                     __ptext1:
   511                           	opt stack 0
   512  00140E                     _set_leds:
   513                           	opt stack 29
   514                           
   515                           ;sumovore.c: 257: PORTDbits.RD0=!SeeLine.b.Left;
   516                           
   517                           ;incstack = 0
   518  00140E  B81F               	btfsc	_SeeLine,4,c
   519  001410  D003               	goto	u670
   520  001412  6A0F               	clrf	??_set_leds& (0+255),c
   521  001414  2A0F               	incf	??_set_leds& (0+255),f,c
   522  001416  D001               	goto	u688
   523  001418                     u670:
   524  001418  6A0F               	clrf	??_set_leds& (0+255),c
   525  00141A                     u688:
   526  00141A  5083               	movf	3971,w,c	;volatile
   527  00141C  180F               	xorwf	??_set_leds,w,c
   528  00141E  0BFE               	andlw	-2
   529  001420  180F               	xorwf	??_set_leds,w,c
   530  001422  6E83               	movwf	3971,c	;volatile
   531                           
   532                           ;sumovore.c: 258: PORTDbits.RD1=!SeeLine.b.CntLeft;
   533  001424  B61F               	btfsc	_SeeLine,3,c
   534  001426  D003               	goto	u690
   535  001428  6A0F               	clrf	??_set_leds& (0+255),c
   536  00142A  2A0F               	incf	??_set_leds& (0+255),f,c
   537  00142C  D001               	goto	u708
   538  00142E                     u690:
   539  00142E  6A0F               	clrf	??_set_leds& (0+255),c
   540  001430                     u708:
   541  001430  460F               	rlncf	??_set_leds,f,c
   542  001432  5083               	movf	3971,w,c	;volatile
   543  001434  180F               	xorwf	??_set_leds,w,c
   544  001436  0BFD               	andlw	-3
   545  001438  180F               	xorwf	??_set_leds,w,c
   546  00143A  6E83               	movwf	3971,c	;volatile
   547                           
   548                           ;sumovore.c: 259: PORTDbits.RD2=!SeeLine.b.Center;
   549  00143C  B41F               	btfsc	_SeeLine,2,c
   550  00143E  D003               	goto	u710
   551  001440  6A0F               	clrf	??_set_leds& (0+255),c
   552  001442  2A0F               	incf	??_set_leds& (0+255),f,c
   553  001444  D001               	goto	u728
   554  001446                     u710:
   555  001446  6A0F               	clrf	??_set_leds& (0+255),c
   556  001448                     u728:
   557  001448  460F               	rlncf	??_set_leds,f,c
   558  00144A  460F               	rlncf	??_set_leds,f,c
   559  00144C  5083               	movf	3971,w,c	;volatile
   560  00144E  180F               	xorwf	??_set_leds,w,c
   561  001450  0BFB               	andlw	-5
   562  001452  180F               	xorwf	??_set_leds,w,c
   563  001454  6E83               	movwf	3971,c	;volatile
   564                           
   565                           ;sumovore.c: 260: PORTDbits.RD3=!SeeLine.b.CntRight;
   566  001456  B21F               	btfsc	_SeeLine,1,c
   567  001458  D003               	goto	u730
   568  00145A  6A0F               	clrf	??_set_leds& (0+255),c
   569  00145C  2A0F               	incf	??_set_leds& (0+255),f,c
   570  00145E  D001               	goto	u748
   571  001460                     u730:
   572  001460  6A0F               	clrf	??_set_leds& (0+255),c
   573  001462                     u748:
   574  001462  460F               	rlncf	??_set_leds,f,c
   575  001464  460F               	rlncf	??_set_leds,f,c
   576  001466  460F               	rlncf	??_set_leds,f,c
   577  001468  5083               	movf	3971,w,c	;volatile
   578  00146A  180F               	xorwf	??_set_leds,w,c
   579  00146C  0BF7               	andlw	-9
   580  00146E  180F               	xorwf	??_set_leds,w,c
   581  001470  6E83               	movwf	3971,c	;volatile
   582                           
   583                           ;sumovore.c: 261: PORTDbits.RD4=!SeeLine.b.Right;
   584  001472  B01F               	btfsc	_SeeLine,0,c
   585  001474  D003               	goto	u750
   586  001476  6A0F               	clrf	??_set_leds& (0+255),c
   587  001478  2A0F               	incf	??_set_leds& (0+255),f,c
   588  00147A  D001               	goto	u768
   589  00147C                     u750:
   590  00147C  6A0F               	clrf	??_set_leds& (0+255),c
   591  00147E                     u768:
   592  00147E  3A0F               	swapf	??_set_leds,f,c
   593  001480  5083               	movf	3971,w,c	;volatile
   594  001482  180F               	xorwf	??_set_leds,w,c
   595  001484  0BEF               	andlw	-17
   596  001486  180F               	xorwf	??_set_leds,w,c
   597  001488  6E83               	movwf	3971,c	;volatile
   598  00148A  0012               	return		;funcret
   599  00148C                     __end_of_set_leds:
   600                           	opt stack 0
   601                           status	equ	0xFD8
   602                           
   603 ;; *************** function _motor_control *****************
   604 ;; Defined at:
   605 ;;		line 12 in file "motor_control.c"
   606 ;; Parameters:    Size  Location     Type
   607 ;;		None
   608 ;; Auto vars:     Size  Location     Type
   609 ;;		None
   610 ;; Return value:  Size  Location     Type
   611 ;;		None               void
   612 ;; Registers used:
   613 ;;		wreg, status,2, status,0, tblptrl, tblptrh, tblptru, prodl, prodh, cstack
   614 ;; Tracked objects:
   615 ;;		On entry : 0/0
   616 ;;		On exit  : 0/0
   617 ;;		Unchanged: 0/0
   618 ;; Data sizes:     COMRAM   BANK0   BANK1   BANK2   BANK3   BANK4   BANK5   BANK6   BANK7   BANK8   BANK9  BANK10  BANK1
      +1  BANK12  BANK13  BANK14  BANK15
   619 ;;      Params:         0       0       0       0       0       0       0       0       0       0       0       0       
      +0       0       0       0       0
   620 ;;      Locals:         0       0       0       0       0       0       0       0       0       0       0       0       
      +0       0       0       0       0
   621 ;;      Temps:          0       0       0       0       0       0       0       0       0       0       0       0       
      +0       0       0       0       0
   622 ;;      Totals:         0       0       0       0       0       0       0       0       0       0       0       0       
      +0       0       0       0       0
   623 ;;Total ram usage:        0 bytes
   624 ;; Hardware stack levels used:    1
   625 ;; Hardware stack levels required when called:    5
   626 ;; This function calls:
   627 ;;		_WaitOneSecond
   628 ;;		_follow_simple_curves
   629 ;;		_motors_brake_all
   630 ;;		_set_motor_speed
   631 ;; This function is called by:
   632 ;;		_main
   633 ;; This function uses a non-reentrant model
   634 ;;
   635                           
   636                           	psect	text2
   637  001080                     __ptext2:
   638                           	opt stack 0
   639  001080                     _motor_control:
   640                           	opt stack 25
   641  001080                     
   642                           ;motor_control.c: 15: {
   643                           ;motor_control.c: 16: set_motor_speed(left,stop,0);
   644  001080  0E03               	movlw	3
   645  001082  6E15               	movwf	set_motor_speed@motor_speed,c
   646  001084  0E00               	movlw	0
   647  001086  6E17               	movwf	set_motor_speed@speed_modifier+1,c
   648  001088  0E00               	movlw	0
   649  00108A  6E16               	movwf	set_motor_speed@speed_modifier,c
   650  00108C  0E00               	movlw	0
   651  00108E  EC09  F009         	call	_set_motor_speed
   652                           
   653                           ;motor_control.c: 17: set_motor_speed(right,fast,+185);
   654  001092  0E06               	movlw	6
   655  001094  6E15               	movwf	set_motor_speed@motor_speed,c
   656  001096  0E00               	movlw	0
   657  001098  6E17               	movwf	set_motor_speed@speed_modifier+1,c
   658  00109A  0EB9               	movlw	185
   659  00109C  6E16               	movwf	set_motor_speed@speed_modifier,c
   660  00109E  0E01               	movlw	1
   661  0010A0  EC09  F009         	call	_set_motor_speed
   662                           
   663                           ;motor_control.c: 18: WaitOneSecond();
   664  0010A4  EC5D  F00B         	call	_WaitOneSecond	;wreg free
   665                           
   666                           ;motor_control.c: 19: WaitOneSecond();
   667  0010A8  EC5D  F00B         	call	_WaitOneSecond	;wreg free
   668                           
   669                           ;motor_control.c: 20: WaitOneSecond();
   670  0010AC  EC5D  F00B         	call	_WaitOneSecond	;wreg free
   671                           
   672                           ;motor_control.c: 21: set_motor_speed(left,fast,0);
   673  0010B0  0E06               	movlw	6
   674  0010B2  6E15               	movwf	set_motor_speed@motor_speed,c
   675  0010B4  0E00               	movlw	0
   676  0010B6  6E17               	movwf	set_motor_speed@speed_modifier+1,c
   677  0010B8  0E00               	movlw	0
   678  0010BA  6E16               	movwf	set_motor_speed@speed_modifier,c
   679  0010BC  0E00               	movlw	0
   680  0010BE  EC09  F009         	call	_set_motor_speed
   681                           
   682                           ;motor_control.c: 22: set_motor_speed(right,rev_fast,0);
   683  0010C2  0E00               	movlw	0
   684  0010C4  6E15               	movwf	set_motor_speed@motor_speed,c
   685  0010C6  0E00               	movlw	0
   686  0010C8  6E17               	movwf	set_motor_speed@speed_modifier+1,c
   687  0010CA  0E00               	movlw	0
   688  0010CC  6E16               	movwf	set_motor_speed@speed_modifier,c
   689  0010CE  0E01               	movlw	1
   690  0010D0  EC09  F009         	call	_set_motor_speed
   691                           
   692                           ;motor_control.c: 23: WaitOneSecond();
   693  0010D4  EC5D  F00B         	call	_WaitOneSecond	;wreg free
   694                           
   695                           ;motor_control.c: 24: WaitOneSecond();
   696  0010D8  EC5D  F00B         	call	_WaitOneSecond	;wreg free
   697                           
   698                           ;motor_control.c: 25: WaitOneSecond();
   699  0010DC  EC5D  F00B         	call	_WaitOneSecond	;wreg free
   700                           
   701                           ;motor_control.c: 26: set_motor_speed(left,fast,0);
   702  0010E0  0E06               	movlw	6
   703  0010E2  6E15               	movwf	set_motor_speed@motor_speed,c
   704  0010E4  0E00               	movlw	0
   705  0010E6  6E17               	movwf	set_motor_speed@speed_modifier+1,c
   706  0010E8  0E00               	movlw	0
   707  0010EA  6E16               	movwf	set_motor_speed@speed_modifier,c
   708  0010EC  0E00               	movlw	0
   709  0010EE  EC09  F009         	call	_set_motor_speed
   710                           
   711                           ;motor_control.c: 27: set_motor_speed(right,slow,0);
   712  0010F2  0E04               	movlw	4
   713  0010F4  6E15               	movwf	set_motor_speed@motor_speed,c
   714  0010F6  0E00               	movlw	0
   715  0010F8  6E17               	movwf	set_motor_speed@speed_modifier+1,c
   716  0010FA  0E00               	movlw	0
   717  0010FC  6E16               	movwf	set_motor_speed@speed_modifier,c
   718  0010FE  0E01               	movlw	1
   719  001100  EC09  F009         	call	_set_motor_speed
   720                           
   721                           ;motor_control.c: 28: WaitOneSecond();
   722  001104  EC5D  F00B         	call	_WaitOneSecond	;wreg free
   723                           
   724                           ;motor_control.c: 29: WaitOneSecond();
   725  001108  EC5D  F00B         	call	_WaitOneSecond	;wreg free
   726                           
   727                           ;motor_control.c: 30: WaitOneSecond();
   728  00110C  EC5D  F00B         	call	_WaitOneSecond	;wreg free
   729  001110  D7B7               	goto	l2016
   730                           
   731                           ;motor_control.c: 61: }
   732                           ;motor_control.c: 63: switch(SeeLine.B)
   733  001112  D007               	goto	l2046
   734                           
   735                           ;motor_control.c: 64: {
   736                           ;motor_control.c: 65: case 0b00100u:
   737  001114  D000               	goto	l2040
   738  001116                     l2040:
   739                           
   740                           ;motor_control.c: 66: case 0b00010u:
   741                           ;motor_control.c: 67: case 0b01000u:
   742                           ;motor_control.c: 68: case 0b00001u:
   743                           ;motor_control.c: 69: case 0b10000u:
   744                           ;motor_control.c: 71: follow_simple_curves();
   745  001116  ECD1  F00B         	call	_follow_simple_curves	;wreg free
   746                           
   747                           ;motor_control.c: 72: break;
   748  00111A  D018               	goto	l276
   749  00111C                     l2042:
   750                           
   751                           ;motor_control.c: 74: motors_brake_all();
   752  00111C  ECB1  F00C         	call	_motors_brake_all	;wreg free
   753                           
   754                           ;motor_control.c: 77: }
   755                           
   756                           ;motor_control.c: 76: default: break;
   757                           
   758                           ;motor_control.c: 75: break;
   759  001120  D015               	goto	l276
   760  001122                     l2046:
   761  001122  501F               	movf	_SeeLine,w,c
   762  001124  0B1F               	andlw	31
   763                           
   764                           ; Switch size 1, requested type "space"
   765                           ; Number of cases is 6, Range of values is 0 to 16
   766                           ; switch strategies available:
   767                           ; Name         Instructions Cycles
   768                           ; simple_byte           19    10 (average)
   769                           ;	Chosen strategy is simple_byte
   770  001126  0A00               	xorlw	0	; case 0
   771  001128  B4D8               	btfsc	status,2,c
   772  00112A  D7F8               	goto	l2042
   773  00112C  0A01               	xorlw	1	; case 1
   774  00112E  B4D8               	btfsc	status,2,c
   775  001130  D7F2               	goto	l2040
   776  001132  0A03               	xorlw	3	; case 2
   777  001134  B4D8               	btfsc	status,2,c
   778  001136  D7EF               	goto	l2040
   779  001138  0A06               	xorlw	6	; case 4
   780  00113A  B4D8               	btfsc	status,2,c
   781  00113C  D7EC               	goto	l2040
   782  00113E  0A0C               	xorlw	12	; case 8
   783  001140  B4D8               	btfsc	status,2,c
   784  001142  D7E9               	goto	l2040
   785  001144  0A18               	xorlw	24	; case 16
   786  001146  B4D8               	btfsc	status,2,c
   787  001148  D7E6               	goto	l2040
   788  00114A  D000               	goto	l276
   789  00114C                     l276:
   790  00114C  0012               	return		;funcret
   791  00114E                     __end_of_motor_control:
   792                           	opt stack 0
   793                           status	equ	0xFD8
   794                           
   795 ;; *************** function _motors_brake_all *****************
   796 ;; Defined at:
   797 ;;		line 218 in file "sumovore.c"
   798 ;; Parameters:    Size  Location     Type
   799 ;;		None
   800 ;; Auto vars:     Size  Location     Type
   801 ;;		None
   802 ;; Return value:  Size  Location     Type
   803 ;;		None               void
   804 ;; Registers used:
   805 ;;		wreg, status,2, status,0, cstack
   806 ;; Tracked objects:
   807 ;;		On entry : 0/0
   808 ;;		On exit  : 0/0
   809 ;;		Unchanged: 0/0
   810 ;; Data sizes:     COMRAM   BANK0   BANK1   BANK2   BANK3   BANK4   BANK5   BANK6   BANK7   BANK8   BANK9  BANK10  BANK1
      +1  BANK12  BANK13  BANK14  BANK15
   811 ;;      Params:         0       0       0       0       0       0       0       0       0       0       0       0       
      +0       0       0       0       0
   812 ;;      Locals:         0       0       0       0       0       0       0       0       0       0       0       0       
      +0       0       0       0       0
   813 ;;      Temps:          0       0       0       0       0       0       0       0       0       0       0       0       
      +0       0       0       0       0
   814 ;;      Totals:         0       0       0       0       0       0       0       0       0       0       0       0       
      +0       0       0       0       0
   815 ;;Total ram usage:        0 bytes
   816 ;; Hardware stack levels used:    1
   817 ;; Hardware stack levels required when called:    2
   818 ;; This function calls:
   819 ;;		_SetDCPWM1
   820 ;;		_SetDCPWM2
   821 ;; This function is called by:
   822 ;;		_motor_control
   823 ;; This function uses a non-reentrant model
   824 ;;
   825                           
   826                           	psect	text3
   827  001962                     __ptext3:
   828                           	opt stack 0
   829  001962                     _motors_brake_all:
   830                           	opt stack 27
   831                           
   832                           ;sumovore.c: 220: SetDCPWM1(800u );
   833                           
   834                           ;incstack = 0
   835  001962  0E03               	movlw	3
   836  001964  6E10               	movwf	SetDCPWM1@dutycycle+1,c
   837  001966  0E20               	movlw	32
   838  001968  6E0F               	movwf	SetDCPWM1@dutycycle,c
   839  00196A  EC98  F00B         	call	_SetDCPWM1	;wreg free
   840                           
   841                           ;sumovore.c: 221: SetDCPWM2(800u );
   842  00196E  0E03               	movlw	3
   843  001970  6E10               	movwf	SetDCPWM2@dutycycle+1,c
   844  001972  0E20               	movlw	32
   845  001974  6E0F               	movwf	SetDCPWM2@dutycycle,c
   846  001976  EC7B  F00B         	call	_SetDCPWM2	;wreg free
   847                           
   848                           ;sumovore.c: 222: PORTEbits.RE1 = 0b0;
   849  00197A  9284               	bcf	3972,1,c	;volatile
   850                           
   851                           ;sumovore.c: 223: PORTCbits.RC0 = 0b0;
   852  00197C  9082               	bcf	3970,0,c	;volatile
   853                           
   854                           ;sumovore.c: 224: PORTEbits.RE0 = 0b0;
   855  00197E  9084               	bcf	3972,0,c	;volatile
   856                           
   857                           ;sumovore.c: 225: PORTCbits.RC5 = 0b0;
   858  001980  9A82               	bcf	3970,5,c	;volatile
   859  001982  0012               	return		;funcret
   860  001984                     __end_of_motors_brake_all:
   861                           	opt stack 0
   862                           status	equ	0xFD8
   863                           
   864 ;; *************** function _follow_simple_curves *****************
   865 ;; Defined at:
   866 ;;		line 80 in file "motor_control.c"
   867 ;; Parameters:    Size  Location     Type
   868 ;;		None
   869 ;; Auto vars:     Size  Location     Type
   870 ;;		None
   871 ;; Return value:  Size  Location     Type
   872 ;;		None               void
   873 ;; Registers used:
   874 ;;		wreg, status,2, status,0, tblptrl, tblptrh, tblptru, prodl, prodh, cstack
   875 ;; Tracked objects:
   876 ;;		On entry : 0/0
   877 ;;		On exit  : 0/0
   878 ;;		Unchanged: 0/0
   879 ;; Data sizes:     COMRAM   BANK0   BANK1   BANK2   BANK3   BANK4   BANK5   BANK6   BANK7   BANK8   BANK9  BANK10  BANK1
      +1  BANK12  BANK13  BANK14  BANK15
   880 ;;      Params:         0       0       0       0       0       0       0       0       0       0       0       0       
      +0       0       0       0       0
   881 ;;      Locals:         0       0       0       0       0       0       0       0       0       0       0       0       
      +0       0       0       0       0
   882 ;;      Temps:          0       0       0       0       0       0       0       0       0       0       0       0       
      +0       0       0       0       0
   883 ;;      Totals:         0       0       0       0       0       0       0       0       0       0       0       0       
      +0       0       0       0       0
   884 ;;Total ram usage:        0 bytes
   885 ;; Hardware stack levels used:    1
   886 ;; Hardware stack levels required when called:    4
   887 ;; This function calls:
   888 ;;		_spin_left
   889 ;;		_spin_right
   890 ;;		_straight_fwd
   891 ;;		_turn_left
   892 ;;		_turn_right
   893 ;; This function is called by:
   894 ;;		_motor_control
   895 ;; This function uses a non-reentrant model
   896 ;;
   897                           
   898                           	psect	text4
   899  0017A2                     __ptext4:
   900                           	opt stack 0
   901  0017A2                     _follow_simple_curves:
   902                           	opt stack 25
   903                           
   904                           ;motor_control.c: 82: if ( SeeLine.b.Center ) straight_fwd();
   905                           
   906                           ;incstack = 0
   907  0017A2  A41F               	btfss	_SeeLine,2,c
   908  0017A4  D003               	goto	l279
   909  0017A6  EC52  F00C         	call	_straight_fwd	;wreg free
   910  0017AA  D014               	goto	l288
   911  0017AC                     l279:
   912                           
   913                           ;motor_control.c: 83: else if (SeeLine.b.Left) spin_left();
   914  0017AC  A81F               	btfss	_SeeLine,4,c
   915  0017AE  D003               	goto	l281
   916  0017B0  EC78  F00C         	call	_spin_left	;wreg free
   917  0017B4  D00F               	goto	l288
   918  0017B6                     l281:
   919                           
   920                           ;motor_control.c: 84: else if (SeeLine.b.CntLeft) turn_left();
   921  0017B6  A61F               	btfss	_SeeLine,3,c
   922  0017B8  D003               	goto	l283
   923  0017BA  EC3F  F00C         	call	_turn_left	;wreg free
   924  0017BE  D00A               	goto	l288
   925  0017C0                     l283:
   926                           
   927                           ;motor_control.c: 85: else if (SeeLine.b.CntRight) turn_right();
   928  0017C0  A21F               	btfss	_SeeLine,1,c
   929  0017C2  D003               	goto	l285
   930  0017C4  EC2C  F00C         	call	_turn_right	;wreg free
   931  0017C8  D005               	goto	l288
   932  0017CA                     l285:
   933                           
   934                           ;motor_control.c: 86: else if (SeeLine.b.Right) spin_right();
   935  0017CA  A01F               	btfss	_SeeLine,0,c
   936  0017CC  D003               	goto	l288
   937  0017CE  EC65  F00C         	call	_spin_right	;wreg free
   938  0017D2  D000               	goto	l288
   939  0017D4                     l288:
   940  0017D4  0012               	return		;funcret
   941  0017D6                     __end_of_follow_simple_curves:
   942                           	opt stack 0
   943                           status	equ	0xFD8
   944                           
   945 ;; *************** function _turn_right *****************
   946 ;; Defined at:
   947 ;;		line 110 in file "motor_control.c"
   948 ;; Parameters:    Size  Location     Type
   949 ;;		None
   950 ;; Auto vars:     Size  Location     Type
   951 ;;		None
   952 ;; Return value:  Size  Location     Type
   953 ;;		None               void
   954 ;; Registers used:
   955 ;;		wreg, status,2, status,0, tblptrl, tblptrh, tblptru, prodl, prodh, cstack
   956 ;; Tracked objects:
   957 ;;		On entry : 0/0
   958 ;;		On exit  : 0/0
   959 ;;		Unchanged: 0/0
   960 ;; Data sizes:     COMRAM   BANK0   BANK1   BANK2   BANK3   BANK4   BANK5   BANK6   BANK7   BANK8   BANK9  BANK10  BANK1
      +1  BANK12  BANK13  BANK14  BANK15
   961 ;;      Params:         0       0       0       0       0       0       0       0       0       0       0       0       
      +0       0       0       0       0
   962 ;;      Locals:         0       0       0       0       0       0       0       0       0       0       0       0       
      +0       0       0       0       0
   963 ;;      Temps:          0       0       0       0       0       0       0       0       0       0       0       0       
      +0       0       0       0       0
   964 ;;      Totals:         0       0       0       0       0       0       0       0       0       0       0       0       
      +0       0       0       0       0
   965 ;;Total ram usage:        0 bytes
   966 ;; Hardware stack levels used:    1
   967 ;; Hardware stack levels required when called:    3
   968 ;; This function calls:
   969 ;;		_set_motor_speed
   970 ;; This function is called by:
   971 ;;		_follow_simple_curves
   972 ;; This function uses a non-reentrant model
   973 ;;
   974                           
   975                           	psect	text5
   976  001858                     __ptext5:
   977                           	opt stack 0
   978  001858                     _turn_right:
   979                           	opt stack 25
   980                           
   981                           ;motor_control.c: 112: set_motor_speed(left, fast, 0);
   982                           
   983                           ;incstack = 0
   984  001858  0E06               	movlw	6
   985  00185A  6E15               	movwf	set_motor_speed@motor_speed,c
   986  00185C  0E00               	movlw	0
   987  00185E  6E17               	movwf	set_motor_speed@speed_modifier+1,c
   988  001860  0E00               	movlw	0
   989  001862  6E16               	movwf	set_motor_speed@speed_modifier,c
   990  001864  0E00               	movlw	0
   991  001866  EC09  F009         	call	_set_motor_speed
   992                           
   993                           ;motor_control.c: 113: set_motor_speed(right, stop, 0);
   994  00186A  0E03               	movlw	3
   995  00186C  6E15               	movwf	set_motor_speed@motor_speed,c
   996  00186E  0E00               	movlw	0
   997  001870  6E17               	movwf	set_motor_speed@speed_modifier+1,c
   998  001872  0E00               	movlw	0
   999  001874  6E16               	movwf	set_motor_speed@speed_modifier,c
  1000  001876  0E01               	movlw	1
  1001  001878  EC09  F009         	call	_set_motor_speed
  1002  00187C  0012               	return		;funcret
  1003  00187E                     __end_of_turn_right:
  1004                           	opt stack 0
  1005                           status	equ	0xFD8
  1006                           
  1007 ;; *************** function _turn_left *****************
  1008 ;; Defined at:
  1009 ;;		line 95 in file "motor_control.c"
  1010 ;; Parameters:    Size  Location     Type
  1011 ;;		None
  1012 ;; Auto vars:     Size  Location     Type
  1013 ;;		None
  1014 ;; Return value:  Size  Location     Type
  1015 ;;		None               void
  1016 ;; Registers used:
  1017 ;;		wreg, status,2, status,0, tblptrl, tblptrh, tblptru, prodl, prodh, cstack
  1018 ;; Tracked objects:
  1019 ;;		On entry : 0/0
  1020 ;;		On exit  : 0/0
  1021 ;;		Unchanged: 0/0
  1022 ;; Data sizes:     COMRAM   BANK0   BANK1   BANK2   BANK3   BANK4   BANK5   BANK6   BANK7   BANK8   BANK9  BANK10  BANK1
      +1  BANK12  BANK13  BANK14  BANK15
  1023 ;;      Params:         0       0       0       0       0       0       0       0       0       0       0       0       
      +0       0       0       0       0
  1024 ;;      Locals:         0       0       0       0       0       0       0       0       0       0       0       0       
      +0       0       0       0       0
  1025 ;;      Temps:          0       0       0       0       0       0       0       0       0       0       0       0       
      +0       0       0       0       0
  1026 ;;      Totals:         0       0       0       0       0       0       0       0       0       0       0       0       
      +0       0       0       0       0
  1027 ;;Total ram usage:        0 bytes
  1028 ;; Hardware stack levels used:    1
  1029 ;; Hardware stack levels required when called:    3
  1030 ;; This function calls:
  1031 ;;		_set_motor_speed
  1032 ;; This function is called by:
  1033 ;;		_follow_simple_curves
  1034 ;; This function uses a non-reentrant model
  1035 ;;
  1036                           
  1037                           	psect	text6
  1038  00187E                     __ptext6:
  1039                           	opt stack 0
  1040  00187E                     _turn_left:
  1041                           	opt stack 25
  1042                           
  1043                           ;motor_control.c: 97: set_motor_speed(left, stop, 0);
  1044                           
  1045                           ;incstack = 0
  1046  00187E  0E03               	movlw	3
  1047  001880  6E15               	movwf	set_motor_speed@motor_speed,c
  1048  001882  0E00               	movlw	0
  1049  001884  6E17               	movwf	set_motor_speed@speed_modifier+1,c
  1050  001886  0E00               	movlw	0
  1051  001888  6E16               	movwf	set_motor_speed@speed_modifier,c
  1052  00188A  0E00               	movlw	0
  1053  00188C  EC09  F009         	call	_set_motor_speed
  1054                           
  1055                           ;motor_control.c: 98: set_motor_speed(right, fast, 0);
  1056  001890  0E06               	movlw	6
  1057  001892  6E15               	movwf	set_motor_speed@motor_speed,c
  1058  001894  0E00               	movlw	0
  1059  001896  6E17               	movwf	set_motor_speed@speed_modifier+1,c
  1060  001898  0E00               	movlw	0
  1061  00189A  6E16               	movwf	set_motor_speed@speed_modifier,c
  1062  00189C  0E01               	movlw	1
  1063  00189E  EC09  F009         	call	_set_motor_speed
  1064  0018A2  0012               	return		;funcret
  1065  0018A4                     __end_of_turn_left:
  1066                           	opt stack 0
  1067                           status	equ	0xFD8
  1068                           
  1069 ;; *************** function _straight_fwd *****************
  1070 ;; Defined at:
  1071 ;;		line 100 in file "motor_control.c"
  1072 ;; Parameters:    Size  Location     Type
  1073 ;;		None
  1074 ;; Auto vars:     Size  Location     Type
  1075 ;;		None
  1076 ;; Return value:  Size  Location     Type
  1077 ;;		None               void
  1078 ;; Registers used:
  1079 ;;		wreg, status,2, status,0, tblptrl, tblptrh, tblptru, prodl, prodh, cstack
  1080 ;; Tracked objects:
  1081 ;;		On entry : 0/0
  1082 ;;		On exit  : 0/0
  1083 ;;		Unchanged: 0/0
  1084 ;; Data sizes:     COMRAM   BANK0   BANK1   BANK2   BANK3   BANK4   BANK5   BANK6   BANK7   BANK8   BANK9  BANK10  BANK1
      +1  BANK12  BANK13  BANK14  BANK15
  1085 ;;      Params:         0       0       0       0       0       0       0       0       0       0       0       0       
      +0       0       0       0       0
  1086 ;;      Locals:         0       0       0       0       0       0       0       0       0       0       0       0       
      +0       0       0       0       0
  1087 ;;      Temps:          0       0       0       0       0       0       0       0       0       0       0       0       
      +0       0       0       0       0
  1088 ;;      Totals:         0       0       0       0       0       0       0       0       0       0       0       0       
      +0       0       0       0       0
  1089 ;;Total ram usage:        0 bytes
  1090 ;; Hardware stack levels used:    1
  1091 ;; Hardware stack levels required when called:    3
  1092 ;; This function calls:
  1093 ;;		_set_motor_speed
  1094 ;; This function is called by:
  1095 ;;		_follow_simple_curves
  1096 ;; This function uses a non-reentrant model
  1097 ;;
  1098                           
  1099                           	psect	text7
  1100  0018A4                     __ptext7:
  1101                           	opt stack 0
  1102  0018A4                     _straight_fwd:
  1103                           	opt stack 25
  1104                           
  1105                           ;motor_control.c: 102: set_motor_speed(left, fast, 0);
  1106                           
  1107                           ;incstack = 0
  1108  0018A4  0E06               	movlw	6
  1109  0018A6  6E15               	movwf	set_motor_speed@motor_speed,c
  1110  0018A8  0E00               	movlw	0
  1111  0018AA  6E17               	movwf	set_motor_speed@speed_modifier+1,c
  1112  0018AC  0E00               	movlw	0
  1113  0018AE  6E16               	movwf	set_motor_speed@speed_modifier,c
  1114  0018B0  0E00               	movlw	0
  1115  0018B2  EC09  F009         	call	_set_motor_speed
  1116                           
  1117                           ;motor_control.c: 103: set_motor_speed(right, fast, 0);
  1118  0018B6  0E06               	movlw	6
  1119  0018B8  6E15               	movwf	set_motor_speed@motor_speed,c
  1120  0018BA  0E00               	movlw	0
  1121  0018BC  6E17               	movwf	set_motor_speed@speed_modifier+1,c
  1122  0018BE  0E00               	movlw	0
  1123  0018C0  6E16               	movwf	set_motor_speed@speed_modifier,c
  1124  0018C2  0E01               	movlw	1
  1125  0018C4  EC09  F009         	call	_set_motor_speed
  1126  0018C8  0012               	return		;funcret
  1127  0018CA                     __end_of_straight_fwd:
  1128                           	opt stack 0
  1129                           status	equ	0xFD8
  1130                           
  1131 ;; *************** function _spin_right *****************
  1132 ;; Defined at:
  1133 ;;		line 105 in file "motor_control.c"
  1134 ;; Parameters:    Size  Location     Type
  1135 ;;		None
  1136 ;; Auto vars:     Size  Location     Type
  1137 ;;		None
  1138 ;; Return value:  Size  Location     Type
  1139 ;;		None               void
  1140 ;; Registers used:
  1141 ;;		wreg, status,2, status,0, tblptrl, tblptrh, tblptru, prodl, prodh, cstack
  1142 ;; Tracked objects:
  1143 ;;		On entry : 0/0
  1144 ;;		On exit  : 0/0
  1145 ;;		Unchanged: 0/0
  1146 ;; Data sizes:     COMRAM   BANK0   BANK1   BANK2   BANK3   BANK4   BANK5   BANK6   BANK7   BANK8   BANK9  BANK10  BANK1
      +1  BANK12  BANK13  BANK14  BANK15
  1147 ;;      Params:         0       0       0       0       0       0       0       0       0       0       0       0       
      +0       0       0       0       0
  1148 ;;      Locals:         0       0       0       0       0       0       0       0       0       0       0       0       
      +0       0       0       0       0
  1149 ;;      Temps:          0       0       0       0       0       0       0       0       0       0       0       0       
      +0       0       0       0       0
  1150 ;;      Totals:         0       0       0       0       0       0       0       0       0       0       0       0       
      +0       0       0       0       0
  1151 ;;Total ram usage:        0 bytes
  1152 ;; Hardware stack levels used:    1
  1153 ;; Hardware stack levels required when called:    3
  1154 ;; This function calls:
  1155 ;;		_set_motor_speed
  1156 ;; This function is called by:
  1157 ;;		_follow_simple_curves
  1158 ;; This function uses a non-reentrant model
  1159 ;;
  1160                           
  1161                           	psect	text8
  1162  0018CA                     __ptext8:
  1163                           	opt stack 0
  1164  0018CA                     _spin_right:
  1165                           	opt stack 25
  1166                           
  1167                           ;motor_control.c: 107: set_motor_speed(left, fast, 0);
  1168                           
  1169                           ;incstack = 0
  1170  0018CA  0E06               	movlw	6
  1171  0018CC  6E15               	movwf	set_motor_speed@motor_speed,c
  1172  0018CE  0E00               	movlw	0
  1173  0018D0  6E17               	movwf	set_motor_speed@speed_modifier+1,c
  1174  0018D2  0E00               	movlw	0
  1175  0018D4  6E16               	movwf	set_motor_speed@speed_modifier,c
  1176  0018D6  0E00               	movlw	0
  1177  0018D8  EC09  F009         	call	_set_motor_speed
  1178                           
  1179                           ;motor_control.c: 108: set_motor_speed(right, rev_fast, 0);
  1180  0018DC  0E00               	movlw	0
  1181  0018DE  6E15               	movwf	set_motor_speed@motor_speed,c
  1182  0018E0  0E00               	movlw	0
  1183  0018E2  6E17               	movwf	set_motor_speed@speed_modifier+1,c
  1184  0018E4  0E00               	movlw	0
  1185  0018E6  6E16               	movwf	set_motor_speed@speed_modifier,c
  1186  0018E8  0E01               	movlw	1
  1187  0018EA  EC09  F009         	call	_set_motor_speed
  1188  0018EE  0012               	return		;funcret
  1189  0018F0                     __end_of_spin_right:
  1190                           	opt stack 0
  1191                           status	equ	0xFD8
  1192                           
  1193 ;; *************** function _spin_left *****************
  1194 ;; Defined at:
  1195 ;;		line 89 in file "motor_control.c"
  1196 ;; Parameters:    Size  Location     Type
  1197 ;;		None
  1198 ;; Auto vars:     Size  Location     Type
  1199 ;;		None
  1200 ;; Return value:  Size  Location     Type
  1201 ;;		None               void
  1202 ;; Registers used:
  1203 ;;		wreg, status,2, status,0, tblptrl, tblptrh, tblptru, prodl, prodh, cstack
  1204 ;; Tracked objects:
  1205 ;;		On entry : 0/0
  1206 ;;		On exit  : 0/0
  1207 ;;		Unchanged: 0/0
  1208 ;; Data sizes:     COMRAM   BANK0   BANK1   BANK2   BANK3   BANK4   BANK5   BANK6   BANK7   BANK8   BANK9  BANK10  BANK1
      +1  BANK12  BANK13  BANK14  BANK15
  1209 ;;      Params:         0       0       0       0       0       0       0       0       0       0       0       0       
      +0       0       0       0       0
  1210 ;;      Locals:         0       0       0       0       0       0       0       0       0       0       0       0       
      +0       0       0       0       0
  1211 ;;      Temps:          0       0       0       0       0       0       0       0       0       0       0       0       
      +0       0       0       0       0
  1212 ;;      Totals:         0       0       0       0       0       0       0       0       0       0       0       0       
      +0       0       0       0       0
  1213 ;;Total ram usage:        0 bytes
  1214 ;; Hardware stack levels used:    1
  1215 ;; Hardware stack levels required when called:    3
  1216 ;; This function calls:
  1217 ;;		_set_motor_speed
  1218 ;; This function is called by:
  1219 ;;		_follow_simple_curves
  1220 ;; This function uses a non-reentrant model
  1221 ;;
  1222                           
  1223                           	psect	text9
  1224  0018F0                     __ptext9:
  1225                           	opt stack 0
  1226  0018F0                     _spin_left:
  1227                           	opt stack 25
  1228                           
  1229                           ;motor_control.c: 91: set_motor_speed(left, rev_fast, 0);
  1230                           
  1231                           ;incstack = 0
  1232  0018F0  0E00               	movlw	0
  1233  0018F2  6E15               	movwf	set_motor_speed@motor_speed,c
  1234  0018F4  0E00               	movlw	0
  1235  0018F6  6E17               	movwf	set_motor_speed@speed_modifier+1,c
  1236  0018F8  0E00               	movlw	0
  1237  0018FA  6E16               	movwf	set_motor_speed@speed_modifier,c
  1238  0018FC  0E00               	movlw	0
  1239  0018FE  EC09  F009         	call	_set_motor_speed
  1240                           
  1241                           ;motor_control.c: 92: set_motor_speed(right, fast, 0);
  1242  001902  0E06               	movlw	6
  1243  001904  6E15               	movwf	set_motor_speed@motor_speed,c
  1244  001906  0E00               	movlw	0
  1245  001908  6E17               	movwf	set_motor_speed@speed_modifier+1,c
  1246  00190A  0E00               	movlw	0
  1247  00190C  6E16               	movwf	set_motor_speed@speed_modifier,c
  1248  00190E  0E01               	movlw	1
  1249  001910  EC09  F009         	call	_set_motor_speed
  1250  001914  0012               	return		;funcret
  1251  001916                     __end_of_spin_left:
  1252                           	opt stack 0
  1253                           status	equ	0xFD8
  1254                           
  1255 ;; *************** function _set_motor_speed *****************
  1256 ;; Defined at:
  1257 ;;		line 188 in file "sumovore.c"
  1258 ;; Parameters:    Size  Location     Type
  1259 ;;  the_motor       1    wreg     enum E4162
  1260 ;;  motor_speed     1   20[COMRAM] enum E4154
  1261 ;;  speed_modifi    2   21[COMRAM] int 
  1262 ;; Auto vars:     Size  Location     Type
  1263 ;;  the_motor       1   24[COMRAM] enum E4162
  1264 ;;  duty_cycle      2   26[COMRAM] int 
  1265 ;;  dir_modifier    1   25[COMRAM] enum E4218
  1266 ;; Return value:  Size  Location     Type
  1267 ;;		None               void
  1268 ;; Registers used:
  1269 ;;		wreg, status,2, status,0, tblptrl, tblptrh, tblptru, prodl, prodh, cstack
  1270 ;; Tracked objects:
  1271 ;;		On entry : 0/0
  1272 ;;		On exit  : 0/0
  1273 ;;		Unchanged: 0/0
  1274 ;; Data sizes:     COMRAM   BANK0   BANK1   BANK2   BANK3   BANK4   BANK5   BANK6   BANK7   BANK8   BANK9  BANK10  BANK1
      +1  BANK12  BANK13  BANK14  BANK15
  1275 ;;      Params:         3       0       0       0       0       0       0       0       0       0       0       0       
      +0       0       0       0       0
  1276 ;;      Locals:         4       0       0       0       0       0       0       0       0       0       0       0       
      +0       0       0       0       0
  1277 ;;      Temps:          1       0       0       0       0       0       0       0       0       0       0       0       
      +0       0       0       0       0
  1278 ;;      Totals:         8       0       0       0       0       0       0       0       0       0       0       0       
      +0       0       0       0       0
  1279 ;;Total ram usage:        8 bytes
  1280 ;; Hardware stack levels used:    1
  1281 ;; Hardware stack levels required when called:    2
  1282 ;; This function calls:
  1283 ;;		_SetDCPWM1
  1284 ;;		_SetDCPWM2
  1285 ;; This function is called by:
  1286 ;;		_motor_control
  1287 ;;		_spin_left
  1288 ;;		_turn_left
  1289 ;;		_straight_fwd
  1290 ;;		_spin_right
  1291 ;;		_turn_right
  1292 ;; This function uses a non-reentrant model
  1293 ;;
  1294                           
  1295                           	psect	text10
  1296  001212                     __ptext10:
  1297                           	opt stack 0
  1298  001212                     _set_motor_speed:
  1299                           	opt stack 27
  1300                           
  1301                           ;incstack = 0
  1302                           ;set_motor_speed@the_motor stored from wreg
  1303  001212  6E19               	movwf	set_motor_speed@the_motor,c
  1304                           
  1305                           ;sumovore.c: 190: const static int motor_speeds[] = { -800, -725, -650, 0, 650, 725, 800
      +                          };
  1306                           ;sumovore.c: 191: int duty_cycle;
  1307                           ;sumovore.c: 192: enum e_direction {reverse,forward} dir_modifier= forward;
  1308  001214  0E01               	movlw	1
  1309  001216  6E1A               	movwf	set_motor_speed@dir_modifier,c
  1310                           
  1311                           ;sumovore.c: 194: duty_cycle = motor_speeds[ motor_speed ] + speed_modifier;
  1312  001218  5015               	movf	set_motor_speed@motor_speed,w,c
  1313  00121A  0D02               	mullw	2
  1314  00121C  0E01               	movlw	low set_motor_speed@motor_speeds
  1315  00121E  24F3               	addwf	prodl,w,c
  1316  001220  6EF6               	movwf	tblptrl,c
  1317  001222  0E10               	movlw	high set_motor_speed@motor_speeds
  1318  001224  20F4               	addwfc	prodh,w,c
  1319  001226  6EF7               	movwf	tblptrh,c
  1320  001228                     	if	1	;There are 3 active tblptr bytes
  1321  001228  6AF8               	clrf	tblptru,c
  1322  00122A  0E00               	movlw	low (__mediumconst shr (0+16))
  1323  00122C  22F8               	addwfc	tblptru,f,c
  1324  00122E                     	endif
  1325  00122E  5016               	movf	set_motor_speed@speed_modifier,w,c
  1326  001230  0009               	tblrd		*+
  1327  001232  24F5               	addwf	tablat,w,c
  1328  001234  6E1B               	movwf	set_motor_speed@duty_cycle,c
  1329  001236  5017               	movf	set_motor_speed@speed_modifier+1,w,c
  1330  001238  0009               	tblrd		*+
  1331  00123A  20F5               	addwfc	tablat,w,c
  1332  00123C  6E1C               	movwf	set_motor_speed@duty_cycle+1,c
  1333                           
  1334                           ;sumovore.c: 195: if ( duty_cycle < 0 )
  1335  00123E  AE1C               	btfss	set_motor_speed@duty_cycle+1,7,c
  1336  001240  D007               	goto	l1732
  1337                           
  1338                           ;sumovore.c: 196: {
  1339                           ;sumovore.c: 197: dir_modifier = reverse;
  1340  001242  0E00               	movlw	0
  1341  001244  6E1A               	movwf	set_motor_speed@dir_modifier,c
  1342                           
  1343                           ;sumovore.c: 198: duty_cycle = -1 * duty_cycle;
  1344  001246  6C1B               	negf	set_motor_speed@duty_cycle,c
  1345  001248  1E1C               	comf	set_motor_speed@duty_cycle+1,f,c
  1346  00124A  B0D8               	btfsc	status,0,c
  1347  00124C  2A1C               	incf	set_motor_speed@duty_cycle+1,f,c
  1348  00124E  D000               	goto	l1732
  1349  001250                     l1732:
  1350                           
  1351                           ;sumovore.c: 199: }
  1352                           ;sumovore.c: 200: if ( duty_cycle > 800 ) duty_cycle = 800;
  1353  001250  BE1C               	btfsc	set_motor_speed@duty_cycle+1,7,c
  1354  001252  D00A               	goto	l172
  1355  001254  0E21               	movlw	33
  1356  001256  5C1B               	subwf	set_motor_speed@duty_cycle,w,c
  1357  001258  0E03               	movlw	3
  1358  00125A  581C               	subwfb	set_motor_speed@duty_cycle+1,w,c
  1359  00125C  A0D8               	btfss	status,0,c
  1360  00125E  D004               	goto	l172
  1361  001260  0E03               	movlw	3
  1362  001262  6E1C               	movwf	set_motor_speed@duty_cycle+1,c
  1363  001264  0E20               	movlw	32
  1364  001266  6E1B               	movwf	set_motor_speed@duty_cycle,c
  1365  001268                     l172:
  1366                           
  1367                           ;sumovore.c: 202: if (the_motor == left)
  1368  001268  5019               	movf	set_motor_speed@the_motor,w,c
  1369  00126A  A4D8               	btfss	status,2,c
  1370  00126C  D018               	goto	l1744
  1371                           
  1372                           ;sumovore.c: 203: {
  1373                           ;sumovore.c: 204: SetDCPWM2((unsigned int) duty_cycle );
  1374  00126E  C01B  F00F         	movff	set_motor_speed@duty_cycle,SetDCPWM2@dutycycle
  1375  001272  C01C  F010         	movff	set_motor_speed@duty_cycle+1,SetDCPWM2@dutycycle+1
  1376  001276  EC7B  F00B         	call	_SetDCPWM2	;wreg free
  1377                           
  1378                           ;sumovore.c: 205: if ( dir_modifier == reverse ) PORTCbits.RC0 = 0b0;
  1379  00127A  501A               	movf	set_motor_speed@dir_modifier,w,c
  1380  00127C  A4D8               	btfss	status,2,c
  1381  00127E  D002               	goto	l174
  1382  001280  9082               	bcf	3970,0,c	;volatile
  1383  001282  D002               	goto	l1742
  1384  001284                     l174:
  1385                           
  1386                           ;sumovore.c: 206: else PORTCbits.RC0 = 0b1;
  1387  001284  8082               	bsf	3970,0,c	;volatile
  1388  001286  D000               	goto	l1742
  1389  001288                     l1742:
  1390                           
  1391                           ;sumovore.c: 207: PORTEbits.RE1 = !PORTCbits.RC0;
  1392  001288  B082               	btfsc	3970,0,c	;volatile
  1393  00128A  D003               	goto	u910
  1394  00128C  6A18               	clrf	??_set_motor_speed& (0+255),c
  1395  00128E  2A18               	incf	??_set_motor_speed& (0+255),f,c
  1396  001290  D001               	goto	u928
  1397  001292                     u910:
  1398  001292  6A18               	clrf	??_set_motor_speed& (0+255),c
  1399  001294                     u928:
  1400  001294  4618               	rlncf	??_set_motor_speed,f,c
  1401  001296  5084               	movf	3972,w,c	;volatile
  1402  001298  1818               	xorwf	??_set_motor_speed,w,c
  1403  00129A  0BFD               	andlw	-3
  1404  00129C  D016               	goto	L1
  1405  00129E                     l1744:
  1406                           
  1407                           ;sumovore.c: 209: else
  1408                           ;sumovore.c: 210: {
  1409                           ;sumovore.c: 211: SetDCPWM1((unsigned int) duty_cycle );
  1410  00129E  C01B  F00F         	movff	set_motor_speed@duty_cycle,SetDCPWM1@dutycycle
  1411  0012A2  C01C  F010         	movff	set_motor_speed@duty_cycle+1,SetDCPWM1@dutycycle+1
  1412  0012A6  EC98  F00B         	call	_SetDCPWM1	;wreg free
  1413                           
  1414                           ;sumovore.c: 212: if ( dir_modifier == reverse ) PORTCbits.RC5 = 0b0;
  1415  0012AA  501A               	movf	set_motor_speed@dir_modifier,w,c
  1416  0012AC  A4D8               	btfss	status,2,c
  1417  0012AE  D002               	goto	l177
  1418  0012B0  9A82               	bcf	3970,5,c	;volatile
  1419  0012B2  D002               	goto	l1750
  1420  0012B4                     l177:
  1421                           
  1422                           ;sumovore.c: 213: else PORTCbits.RC5 = 0b1;
  1423  0012B4  8A82               	bsf	3970,5,c	;volatile
  1424  0012B6  D000               	goto	l1750
  1425  0012B8                     l1750:
  1426                           
  1427                           ;sumovore.c: 214: PORTEbits.RE0 = !PORTCbits.RC5;
  1428  0012B8  BA82               	btfsc	3970,5,c	;volatile
  1429  0012BA  D003               	goto	u940
  1430  0012BC  6A18               	clrf	??_set_motor_speed& (0+255),c
  1431  0012BE  2A18               	incf	??_set_motor_speed& (0+255),f,c
  1432  0012C0  D001               	goto	u958
  1433  0012C2                     u940:
  1434  0012C2  6A18               	clrf	??_set_motor_speed& (0+255),c
  1435  0012C4                     u958:
  1436  0012C4  5084               	movf	3972,w,c	;volatile
  1437  0012C6  1818               	xorwf	??_set_motor_speed,w,c
  1438  0012C8  0BFE               	andlw	-2
  1439  0012CA                     L1:
  1440  0012CA  1818               	xorwf	??_set_motor_speed,w,c
  1441  0012CC  6E84               	movwf	3972,c	;volatile
  1442  0012CE  D000               	goto	l179
  1443  0012D0                     l179:
  1444  0012D0  0012               	return		;funcret
  1445  0012D2                     __end_of_set_motor_speed:
  1446                           	opt stack 0
  1447                           tblptru	equ	0xFF8
  1448                           tblptrh	equ	0xFF7
  1449                           tblptrl	equ	0xFF6
  1450                           tablat	equ	0xFF5
  1451                           prodh	equ	0xFF4
  1452                           prodl	equ	0xFF3
  1453                           status	equ	0xFD8
  1454                           
  1455 ;; *************** function _WaitOneSecond *****************
  1456 ;; Defined at:
  1457 ;;		line 6 in file "../Common/TimeDelays.c"
  1458 ;; Parameters:    Size  Location     Type
  1459 ;;		None
  1460 ;; Auto vars:     Size  Location     Type
  1461 ;;  i               2   15[COMRAM] int 
  1462 ;; Return value:  Size  Location     Type
  1463 ;;		None               void
  1464 ;; Registers used:
  1465 ;;		wreg, status,2, status,0
  1466 ;; Tracked objects:
  1467 ;;		On entry : 0/0
  1468 ;;		On exit  : 0/0
  1469 ;;		Unchanged: 0/0
  1470 ;; Data sizes:     COMRAM   BANK0   BANK1   BANK2   BANK3   BANK4   BANK5   BANK6   BANK7   BANK8   BANK9  BANK10  BANK1
      +1  BANK12  BANK13  BANK14  BANK15
  1471 ;;      Params:         0       0       0       0       0       0       0       0       0       0       0       0       
      +0       0       0       0       0
  1472 ;;      Locals:         2       0       0       0       0       0       0       0       0       0       0       0       
      +0       0       0       0       0
  1473 ;;      Temps:          1       0       0       0       0       0       0       0       0       0       0       0       
      +0       0       0       0       0
  1474 ;;      Totals:         3       0       0       0       0       0       0       0       0       0       0       0       
      +0       0       0       0       0
  1475 ;;Total ram usage:        3 bytes
  1476 ;; Hardware stack levels used:    1
  1477 ;; Hardware stack levels required when called:    1
  1478 ;; This function calls:
  1479 ;;		Nothing
  1480 ;; This function is called by:
  1481 ;;		_motor_control
  1482 ;; This function uses a non-reentrant model
  1483 ;;
  1484                           
  1485                           	psect	text11
  1486  0016BA                     __ptext11:
  1487                           	opt stack 0
  1488  0016BA                     _WaitOneSecond:
  1489                           	opt stack 28
  1490                           
  1491                           ;TimeDelays.c: 8: int i = 0;
  1492                           
  1493                           ;incstack = 0
  1494  0016BA  0E00               	movlw	0
  1495  0016BC  6E11               	movwf	WaitOneSecond@i+1,c
  1496  0016BE  0E00               	movlw	0
  1497  0016C0  6E10               	movwf	WaitOneSecond@i,c
  1498                           
  1499                           ;TimeDelays.c: 9: for(i=0; i<=80; i++)
  1500  0016C2  0E00               	movlw	0
  1501  0016C4  6E11               	movwf	WaitOneSecond@i+1,c
  1502  0016C6  0E00               	movlw	0
  1503  0016C8  6E10               	movwf	WaitOneSecond@i,c
  1504  0016CA                     l1524:
  1505  0016CA  BE11               	btfsc	WaitOneSecond@i+1,7,c
  1506  0016CC  D008               	goto	l1528
  1507  0016CE  5011               	movf	WaitOneSecond@i+1,w,c
  1508  0016D0  E111               	bnz	l336
  1509  0016D2  0E51               	movlw	81
  1510  0016D4  5C10               	subwf	WaitOneSecond@i,w,c
  1511  0016D6  B0D8               	btfsc	status,0,c
  1512  0016D8  D00D               	goto	l336
  1513  0016DA  D001               	goto	l1528
  1514  0016DC  D00B               	goto	l336
  1515  0016DE                     l1528:
  1516                           
  1517                           ;TimeDelays.c: 10: {
  1518                           ;TimeDelays.c: 11: _delay(100000ul);
  1519  0016DE  0E82               	movlw	130
  1520  0016E0  6E0F               	movwf	??_WaitOneSecond& (0+255),c
  1521  0016E2  0EDE               	movlw	222
  1522  0016E4                     u1317:
  1523  0016E4  2EE8               	decfsz	wreg,f,c
  1524  0016E6  D7FE               	goto	u1317
  1525  0016E8  2E0F               	decfsz	??_WaitOneSecond& (0+255),f,c
  1526  0016EA  D7FC               	goto	u1317
  1527  0016EC  4A10               	infsnz	WaitOneSecond@i,f,c
  1528  0016EE  2A11               	incf	WaitOneSecond@i+1,f,c
  1529  0016F0  D7EC               	goto	l1524
  1530  0016F2  D000               	goto	l336
  1531  0016F4                     l336:
  1532  0016F4  0012               	return		;funcret
  1533  0016F6                     __end_of_WaitOneSecond:
  1534                           	opt stack 0
  1535                           tblptru	equ	0xFF8
  1536                           tblptrh	equ	0xFF7
  1537                           tblptrl	equ	0xFF6
  1538                           tablat	equ	0xFF5
  1539                           prodh	equ	0xFF4
  1540                           prodl	equ	0xFF3
  1541                           wreg	equ	0xFE8
  1542                           status	equ	0xFD8
  1543                           
  1544 ;; *************** function _lvd_flag_set *****************
  1545 ;; Defined at:
  1546 ;;		line 47 in file "interrupts.c"
  1547 ;; Parameters:    Size  Location     Type
  1548 ;;		None
  1549 ;; Auto vars:     Size  Location     Type
  1550 ;;		None
  1551 ;; Return value:  Size  Location     Type
  1552 ;;                  1    wreg      unsigned char 
  1553 ;; Registers used:
  1554 ;;		wreg, status,2
  1555 ;; Tracked objects:
  1556 ;;		On entry : 0/0
  1557 ;;		On exit  : 0/0
  1558 ;;		Unchanged: 0/0
  1559 ;; Data sizes:     COMRAM   BANK0   BANK1   BANK2   BANK3   BANK4   BANK5   BANK6   BANK7   BANK8   BANK9  BANK10  BANK1
      +1  BANK12  BANK13  BANK14  BANK15
  1560 ;;      Params:         0       0       0       0       0       0       0       0       0       0       0       0       
      +0       0       0       0       0
  1561 ;;      Locals:         0       0       0       0       0       0       0       0       0       0       0       0       
      +0       0       0       0       0
  1562 ;;      Temps:          0       0       0       0       0       0       0       0       0       0       0       0       
      +0       0       0       0       0
  1563 ;;      Totals:         0       0       0       0       0       0       0       0       0       0       0       0       
      +0       0       0       0       0
  1564 ;;Total ram usage:        0 bytes
  1565 ;; Hardware stack levels used:    1
  1566 ;; Hardware stack levels required when called:    1
  1567 ;; This function calls:
  1568 ;;		Nothing
  1569 ;; This function is called by:
  1570 ;;		_main
  1571 ;; This function uses a non-reentrant model
  1572 ;;
  1573                           
  1574                           	psect	text12
  1575  001AC6                     __ptext12:
  1576                           	opt stack 0
  1577  001AC6                     _lvd_flag_set:
  1578                           	opt stack 29
  1579                           
  1580                           ;interrupts.c: 49: return lvd_flag;
  1581                           
  1582                           ;incstack = 0
  1583  001AC6  5020               	movf	_lvd_flag,w,c
  1584  001AC8  D000               	goto	l47
  1585  001ACA                     l47:
  1586  001ACA  0012               	return		;funcret
  1587  001ACC                     __end_of_lvd_flag_set:
  1588                           	opt stack 0
  1589                           tblptru	equ	0xFF8
  1590                           tblptrh	equ	0xFF7
  1591                           tblptrl	equ	0xFF6
  1592                           tablat	equ	0xFF5
  1593                           prodh	equ	0xFF4
  1594                           prodl	equ	0xFF3
  1595                           wreg	equ	0xFE8
  1596                           status	equ	0xFD8
  1597                           
  1598 ;; *************** function _initialization *****************
  1599 ;; Defined at:
  1600 ;;		line 65 in file "sumovore.c"
  1601 ;; Parameters:    Size  Location     Type
  1602 ;;		None
  1603 ;; Auto vars:     Size  Location     Type
  1604 ;;		None
  1605 ;; Return value:  Size  Location     Type
  1606 ;;		None               void
  1607 ;; Registers used:
  1608 ;;		wreg, status,2, status,0, tblptrl, tblptrh, tblptru, cstack
  1609 ;; Tracked objects:
  1610 ;;		On entry : 0/0
  1611 ;;		On exit  : 0/0
  1612 ;;		Unchanged: 0/0
  1613 ;; Data sizes:     COMRAM   BANK0   BANK1   BANK2   BANK3   BANK4   BANK5   BANK6   BANK7   BANK8   BANK9  BANK10  BANK1
      +1  BANK12  BANK13  BANK14  BANK15
  1614 ;;      Params:         0       0       0       0       0       0       0       0       0       0       0       0       
      +0       0       0       0       0
  1615 ;;      Locals:         0       0       0       0       0       0       0       0       0       0       0       0       
      +0       0       0       0       0
  1616 ;;      Temps:          0       0       0       0       0       0       0       0       0       0       0       0       
      +0       0       0       0       0
  1617 ;;      Totals:         0       0       0       0       0       0       0       0       0       0       0       0       
      +0       0       0       0       0
  1618 ;;Total ram usage:        0 bytes
  1619 ;; Hardware stack levels used:    1
  1620 ;; Hardware stack levels required when called:    5
  1621 ;; This function calls:
  1622 ;;		_OpenADC
  1623 ;;		_OpenPWM1
  1624 ;;		_OpenPWM2
  1625 ;;		_OpenTimer2
  1626 ;;		_OpenUSART
  1627 ;;		_SetDCPWM1
  1628 ;;		_SetDCPWM2
  1629 ;;		_openLVD
  1630 ;;		_openPORTA
  1631 ;;		_openPORTB
  1632 ;;		_openPORTCforPWM
  1633 ;;		_openPORTCforUSART
  1634 ;;		_openPORTD
  1635 ;;		_openPORTE
  1636 ;;		_reset_codes
  1637 ;;		_set_osc_32MHz
  1638 ;; This function is called by:
  1639 ;;		_main
  1640 ;; This function uses a non-reentrant model
  1641 ;;
  1642                           
  1643                           	psect	text13
  1644  00137E                     __ptext13:
  1645                           	opt stack 0
  1646  00137E                     _initialization:
  1647                           	opt stack 25
  1648                           
  1649                           ;sumovore.c: 67: SeeLine.B = 0;
  1650                           
  1651                           ;incstack = 0
  1652  00137E  901F               	bcf	_SeeLine,0,c
  1653  001380  921F               	bcf	_SeeLine,1,c
  1654  001382  941F               	bcf	_SeeLine,2,c
  1655  001384  961F               	bcf	_SeeLine,3,c
  1656  001386  981F               	bcf	_SeeLine,4,c
  1657                           
  1658                           ;sumovore.c: 68: RCONbits.IPEN = 1;
  1659  001388  8ED0               	bsf	4048,7,c	;volatile
  1660                           
  1661                           ;sumovore.c: 69: INTCONbits.GIEH = 0;
  1662  00138A  9EF2               	bcf	intcon,7,c	;volatile
  1663                           
  1664                           ;sumovore.c: 70: INTCONbits.GIEL = 0;
  1665  00138C  9CF2               	bcf	intcon,6,c	;volatile
  1666                           
  1667                           ;sumovore.c: 72: set_osc_32MHz();
  1668  00138E  EC02  F00C         	call	_set_osc_32MHz	;wreg free
  1669                           
  1670                           ;sumovore.c: 73: openPORTCforUSART();
  1671  001392  EC6C  F00D         	call	_openPORTCforUSART	;wreg free
  1672                           
  1673                           ;sumovore.c: 75: OpenUSART( 0b01111111 & 0b10111111 & 0b11111110 & 0b11111101 & 0b111111
      +                          11 & 0b11111111,
  1674                           ;sumovore.c: 76: 16 );
  1675  001396  0E00               	movlw	0
  1676  001398  6E10               	movwf	OpenUSART@spbrg+1,c
  1677  00139A  0E10               	movlw	16
  1678  00139C  6E0F               	movwf	OpenUSART@spbrg,c
  1679  00139E  0E3C               	movlw	60
  1680  0013A0  EC85  F00A         	call	_OpenUSART
  1681                           
  1682                           ;sumovore.c: 82: openPORTD();
  1683  0013A4  EC75  F00D         	call	_openPORTD	;wreg free
  1684                           
  1685                           ;sumovore.c: 83: PORTD = 0;
  1686  0013A8  0E00               	movlw	0
  1687  0013AA  6E83               	movwf	3971,c	;volatile
  1688                           
  1689                           ;sumovore.c: 85: reset_codes();
  1690  0013AC  EC1D  F00B         	call	_reset_codes	;wreg free
  1691                           
  1692                           ;sumovore.c: 87: openPORTCforPWM();
  1693  0013B0  EC55  F00D         	call	_openPORTCforPWM	;wreg free
  1694                           
  1695                           ;sumovore.c: 89: openPORTA();
  1696  0013B4  EC72  F00D         	call	_openPORTA	;wreg free
  1697                           
  1698                           ;sumovore.c: 90: openPORTB();
  1699  0013B8  EC6F  F00D         	call	_openPORTB	;wreg free
  1700                           
  1701                           ;sumovore.c: 91: openPORTE();
  1702  0013BC  EC69  F00D         	call	_openPORTE	;wreg free
  1703                           
  1704                           ;sumovore.c: 94: openLVD();
  1705  0013C0  EC1B  F00D         	call	_openLVD	;wreg free
  1706                           
  1707                           ;sumovore.c: 98: OpenADC(0b10101111 & 0b11111111 & 0b11110111 , 0b10001111 & 0b01111111 
      +                          & 0b11111110 & 0b11111101, 0B1010);
  1708  0013C4  0E0C               	movlw	12
  1709  0013C6  6E0F               	movwf	OpenADC@config2,c
  1710  0013C8  0E0A               	movlw	10
  1711  0013CA  6E10               	movwf	OpenADC@portconfig,c
  1712  0013CC  0EA7               	movlw	167
  1713  0013CE  ECEE  F00A         	call	_OpenADC
  1714                           
  1715                           ;sumovore.c: 101: PORTCbits.RC5 = 0b0;
  1716  0013D2  9A82               	bcf	3970,5,c	;volatile
  1717                           
  1718                           ;sumovore.c: 102: PORTEbits.RE0 = 0b0;
  1719  0013D4  9084               	bcf	3972,0,c	;volatile
  1720                           
  1721                           ;sumovore.c: 103: PORTCbits.RC0 = 0b0;
  1722  0013D6  9082               	bcf	3970,0,c	;volatile
  1723                           
  1724                           ;sumovore.c: 104: PORTEbits.RE1 = 0b0;
  1725  0013D8  9284               	bcf	3972,1,c	;volatile
  1726                           
  1727                           ;sumovore.c: 109: OpenTimer2(0b01111111 & 0b11111110 & 0b10000111);
  1728  0013DA  0E06               	movlw	6
  1729  0013DC  EC0D  F00D         	call	_OpenTimer2
  1730                           
  1731                           ;sumovore.c: 110: OpenPWM1(199);
  1732  0013E0  0EC7               	movlw	199
  1733  0013E2  EC3D  F00D         	call	_OpenPWM1
  1734                           
  1735                           ;sumovore.c: 112: OpenPWM2(199);
  1736  0013E6  0EC7               	movlw	199
  1737  0013E8  ECB5  F00B         	call	_OpenPWM2
  1738                           
  1739                           ;sumovore.c: 113: SetDCPWM1(0);
  1740  0013EC  0E00               	movlw	0
  1741  0013EE  6E10               	movwf	SetDCPWM1@dutycycle+1,c
  1742  0013F0  0E00               	movlw	0
  1743  0013F2  6E0F               	movwf	SetDCPWM1@dutycycle,c
  1744  0013F4  EC98  F00B         	call	_SetDCPWM1	;wreg free
  1745                           
  1746                           ;sumovore.c: 116: SetDCPWM2(0);
  1747  0013F8  0E00               	movlw	0
  1748  0013FA  6E10               	movwf	SetDCPWM2@dutycycle+1,c
  1749  0013FC  0E00               	movlw	0
  1750  0013FE  6E0F               	movwf	SetDCPWM2@dutycycle,c
  1751  001400  EC7B  F00B         	call	_SetDCPWM2	;wreg free
  1752                           
  1753                           ;sumovore.c: 117: threshold = 512u;
  1754  001404  0E02               	movlw	2
  1755  001406  6E1E               	movwf	_threshold+1,c
  1756  001408  0E00               	movlw	0
  1757  00140A  6E1D               	movwf	_threshold,c
  1758  00140C  0012               	return		;funcret
  1759  00140E                     __end_of_initialization:
  1760                           	opt stack 0
  1761                           tblptru	equ	0xFF8
  1762                           tblptrh	equ	0xFF7
  1763                           tblptrl	equ	0xFF6
  1764                           tablat	equ	0xFF5
  1765                           prodh	equ	0xFF4
  1766                           prodl	equ	0xFF3
  1767                           intcon	equ	0xFF2
  1768                           wreg	equ	0xFE8
  1769                           status	equ	0xFD8
  1770                           
  1771 ;; *************** function _set_osc_32MHz *****************
  1772 ;; Defined at:
  1773 ;;		line 15 in file "../Common/osc.c"
  1774 ;; Parameters:    Size  Location     Type
  1775 ;;		None
  1776 ;; Auto vars:     Size  Location     Type
  1777 ;;  i               2   14[COMRAM] int 
  1778 ;; Return value:  Size  Location     Type
  1779 ;;		None               void
  1780 ;; Registers used:
  1781 ;;		wreg, status,2, status,0
  1782 ;; Tracked objects:
  1783 ;;		On entry : 0/0
  1784 ;;		On exit  : 0/0
  1785 ;;		Unchanged: 0/0
  1786 ;; Data sizes:     COMRAM   BANK0   BANK1   BANK2   BANK3   BANK4   BANK5   BANK6   BANK7   BANK8   BANK9  BANK10  BANK1
      +1  BANK12  BANK13  BANK14  BANK15
  1787 ;;      Params:         0       0       0       0       0       0       0       0       0       0       0       0       
      +0       0       0       0       0
  1788 ;;      Locals:         2       0       0       0       0       0       0       0       0       0       0       0       
      +0       0       0       0       0
  1789 ;;      Temps:          0       0       0       0       0       0       0       0       0       0       0       0       
      +0       0       0       0       0
  1790 ;;      Totals:         2       0       0       0       0       0       0       0       0       0       0       0       
      +0       0       0       0       0
  1791 ;;Total ram usage:        2 bytes
  1792 ;; Hardware stack levels used:    1
  1793 ;; Hardware stack levels required when called:    1
  1794 ;; This function calls:
  1795 ;;		Nothing
  1796 ;; This function is called by:
  1797 ;;		_initialization
  1798 ;; This function uses a non-reentrant model
  1799 ;;
  1800                           
  1801                           	psect	text14
  1802  001804                     __ptext14:
  1803                           	opt stack 0
  1804  001804                     _set_osc_32MHz:
  1805                           	opt stack 28
  1806                           
  1807                           ;osc.c: 17: int i;
  1808                           ;osc.c: 19: OSCCONbits.IRCF2 = 1;
  1809                           
  1810                           ;incstack = 0
  1811  001804  8CD3               	bsf	4051,6,c	;volatile
  1812                           
  1813                           ;osc.c: 20: OSCCONbits.IRCF1 = 1;
  1814  001806  8AD3               	bsf	4051,5,c	;volatile
  1815                           
  1816                           ;osc.c: 21: OSCCONbits.IRCF0 = 1;
  1817  001808  88D3               	bsf	4051,4,c	;volatile
  1818                           
  1819                           ;osc.c: 23: OSCTUNEbits.PLLEN = 1;
  1820  00180A  8C9B               	bsf	3995,6,c	;volatile
  1821                           
  1822                           ;osc.c: 27: for(i=0;i<500;i++);
  1823  00180C  0E00               	movlw	0
  1824  00180E  6E10               	movwf	set_osc_32MHz@i+1,c
  1825  001810  0E00               	movlw	0
  1826  001812  6E0F               	movwf	set_osc_32MHz@i,c
  1827  001814                     l1372:
  1828  001814  BE10               	btfsc	set_osc_32MHz@i+1,7,c
  1829  001816  D008               	goto	l1376
  1830  001818  0EF4               	movlw	244
  1831  00181A  5C0F               	subwf	set_osc_32MHz@i,w,c
  1832  00181C  0E01               	movlw	1
  1833  00181E  5810               	subwfb	set_osc_32MHz@i+1,w,c
  1834  001820  B0D8               	btfsc	status,0,c
  1835  001822  D005               	goto	l312
  1836  001824  D001               	goto	l1376
  1837  001826  D003               	goto	l312
  1838  001828                     l1376:
  1839  001828  4A0F               	infsnz	set_osc_32MHz@i,f,c
  1840  00182A  2A10               	incf	set_osc_32MHz@i+1,f,c
  1841  00182C  D7F3               	goto	l1372
  1842  00182E                     l312:
  1843  00182E  0012               	return		;funcret
  1844  001830                     __end_of_set_osc_32MHz:
  1845                           	opt stack 0
  1846                           tblptru	equ	0xFF8
  1847                           tblptrh	equ	0xFF7
  1848                           tblptrl	equ	0xFF6
  1849                           tablat	equ	0xFF5
  1850                           prodh	equ	0xFF4
  1851                           prodl	equ	0xFF3
  1852                           intcon	equ	0xFF2
  1853                           wreg	equ	0xFE8
  1854                           status	equ	0xFD8
  1855                           
  1856 ;; *************** function _reset_codes *****************
  1857 ;; Defined at:
  1858 ;;		line 281 in file "sumovore.c"
  1859 ;; Parameters:    Size  Location     Type
  1860 ;;		None
  1861 ;; Auto vars:     Size  Location     Type
  1862 ;;		None
  1863 ;; Return value:  Size  Location     Type
  1864 ;;		None               void
  1865 ;; Registers used:
  1866 ;;		wreg, status,2, status,0, tblptrl, tblptrh, tblptru, cstack
  1867 ;; Tracked objects:
  1868 ;;		On entry : 0/0
  1869 ;;		On exit  : 0/0
  1870 ;;		Unchanged: 0/0
  1871 ;; Data sizes:     COMRAM   BANK0   BANK1   BANK2   BANK3   BANK4   BANK5   BANK6   BANK7   BANK8   BANK9  BANK10  BANK1
      +1  BANK12  BANK13  BANK14  BANK15
  1872 ;;      Params:         0       0       0       0       0       0       0       0       0       0       0       0       
      +0       0       0       0       0
  1873 ;;      Locals:         0       0       0       0       0       0       0       0       0       0       0       0       
      +0       0       0       0       0
  1874 ;;      Temps:          0       0       0       0       0       0       0       0       0       0       0       0       
      +0       0       0       0       0
  1875 ;;      Totals:         0       0       0       0       0       0       0       0       0       0       0       0       
      +0       0       0       0       0
  1876 ;;Total ram usage:        0 bytes
  1877 ;; Hardware stack levels used:    1
  1878 ;; Hardware stack levels required when called:    4
  1879 ;; This function calls:
  1880 ;;		_BORtask
  1881 ;;		_PORtask
  1882 ;;		_RESETtask
  1883 ;;		_STKFULtask
  1884 ;;		_WDTtask
  1885 ;;		_isBOR
  1886 ;;		_isPOR
  1887 ;;		_isWDTTO
  1888 ;; This function is called by:
  1889 ;;		_initialization
  1890 ;; This function uses a non-reentrant model
  1891 ;;
  1892                           
  1893                           	psect	text15
  1894  00163A                     __ptext15:
  1895                           	opt stack 0
  1896  00163A                     _reset_codes:
  1897                           	opt stack 25
  1898                           
  1899                           ;sumovore.c: 283: if( isPOR() ) PORtask();
  1900                           
  1901                           ;incstack = 0
  1902  00163A  EC9E  F00C         	call	_isPOR	;wreg free
  1903  00163E  0900               	iorlw	0
  1904  001640  B4D8               	btfsc	status,2,c
  1905  001642  D003               	goto	l1912
  1906  001644  EC69  F009         	call	_PORtask	;wreg free
  1907  001648  D018               	goto	l205
  1908  00164A                     l1912:
  1909                           
  1910                           ;sumovore.c: 286: else if (isBOR() ) BORtask();
  1911  00164A  EC27  F00D         	call	_isBOR	;wreg free
  1912  00164E  0900               	iorlw	0
  1913  001650  B4D8               	btfsc	status,2,c
  1914  001652  D003               	goto	l1916
  1915  001654  ECC2  F00C         	call	_BORtask	;wreg free
  1916  001658  D010               	goto	l205
  1917  00165A                     l1916:
  1918                           
  1919                           ;sumovore.c: 288: else if(isWDTTO() ) WDTtask();
  1920  00165A  EC8B  F00C         	call	_isWDTTO	;wreg free
  1921  00165E  0900               	iorlw	0
  1922  001660  B4D8               	btfsc	status,2,c
  1923  001662  D003               	goto	l201
  1924  001664  ECF1  F00C         	call	_WDTtask	;wreg free
  1925  001668  D008               	goto	l205
  1926  00166A                     l201:
  1927                           
  1928                           ;sumovore.c: 292: else if(STKPTRbits.STKFUL) STKFULtask();
  1929  00166A  AEFC               	btfss	stkptr,7,c	;volatile
  1930  00166C  D003               	goto	l1922
  1931  00166E  ECE2  F00C         	call	_STKFULtask	;wreg free
  1932  001672  D003               	goto	l205
  1933  001674                     l1922:
  1934                           
  1935                           ;sumovore.c: 296: else RESETtask();
  1936  001674  ECFF  F00C         	call	_RESETtask	;wreg free
  1937  001678  D000               	goto	l205
  1938  00167A                     l205:
  1939  00167A  0012               	return		;funcret
  1940  00167C                     __end_of_reset_codes:
  1941                           	opt stack 0
  1942                           stkptr	equ	0xFFC
  1943                           tblptru	equ	0xFF8
  1944                           tblptrh	equ	0xFF7
  1945                           tblptrl	equ	0xFF6
  1946                           tablat	equ	0xFF5
  1947                           prodh	equ	0xFF4
  1948                           prodl	equ	0xFF3
  1949                           intcon	equ	0xFF2
  1950                           wreg	equ	0xFE8
  1951                           status	equ	0xFD8
  1952                           
  1953 ;; *************** function _isWDTTO *****************
  1954 ;; Defined at:
  1955 ;;		line 15 in file "C:\Program Files (x86)\Microchip\xc8\v1.34\sources\pic18\plib\reset\iswdtto.c"
  1956 ;; Parameters:    Size  Location     Type
  1957 ;;		None
  1958 ;; Auto vars:     Size  Location     Type
  1959 ;;		None
  1960 ;; Return value:  Size  Location     Type
  1961 ;;                  1    wreg      unsigned char 
  1962 ;; Registers used:
  1963 ;;		wreg
  1964 ;; Tracked objects:
  1965 ;;		On entry : 0/0
  1966 ;;		On exit  : 0/0
  1967 ;;		Unchanged: 0/0
  1968 ;; Data sizes:     COMRAM   BANK0   BANK1   BANK2   BANK3   BANK4   BANK5   BANK6   BANK7   BANK8   BANK9  BANK10  BANK1
      +1  BANK12  BANK13  BANK14  BANK15
  1969 ;;      Params:         0       0       0       0       0       0       0       0       0       0       0       0       
      +0       0       0       0       0
  1970 ;;      Locals:         0       0       0       0       0       0       0       0       0       0       0       0       
      +0       0       0       0       0
  1971 ;;      Temps:          0       0       0       0       0       0       0       0       0       0       0       0       
      +0       0       0       0       0
  1972 ;;      Totals:         0       0       0       0       0       0       0       0       0       0       0       0       
      +0       0       0       0       0
  1973 ;;Total ram usage:        0 bytes
  1974 ;; Hardware stack levels used:    1
  1975 ;; Hardware stack levels required when called:    1
  1976 ;; This function calls:
  1977 ;;		Nothing
  1978 ;; This function is called by:
  1979 ;;		_reset_codes
  1980 ;; This function uses a non-reentrant model
  1981 ;;
  1982                           
  1983                           	psect	text16
  1984  001916                     __ptext16:
  1985                           	opt stack 0
  1986  001916                     _isWDTTO:
  1987                           	opt stack 27
  1988                           
  1989                           ;incstack = 0
  1990  001916  A2D0               	btfss	4048,1,c	;volatile
  1991  001918  D00E               	goto	l1310
  1992  00191A  A4D0               	btfss	4048,2,c	;volatile
  1993  00191C  D00A               	goto	l1306
  1994  00191E  A0D0               	btfss	4048,0,c	;volatile
  1995  001920  D006               	goto	l1302
  1996  001922  A6D0               	btfss	4048,3,c	;volatile
  1997  001924  D002               	goto	l1298
  1998  001926  D003               	goto	l1302
  1999  001928  D008               	goto	l514
  2000  00192A                     l1298:
  2001  00192A  0E01               	movlw	1
  2002  00192C  D006               	goto	l514
  2003  00192E                     l1302:
  2004  00192E  0E00               	movlw	0
  2005  001930  D004               	goto	l514
  2006  001932                     l1306:
  2007  001932  0E00               	movlw	0
  2008  001934  D002               	goto	l514
  2009  001936                     l1310:
  2010  001936  0E00               	movlw	0
  2011  001938  D000               	goto	l514
  2012  00193A                     l514:
  2013  00193A  0012               	return		;funcret
  2014  00193C                     __end_of_isWDTTO:
  2015                           	opt stack 0
  2016                           stkptr	equ	0xFFC
  2017                           tblptru	equ	0xFF8
  2018                           tblptrh	equ	0xFF7
  2019                           tblptrl	equ	0xFF6
  2020                           tablat	equ	0xFF5
  2021                           prodh	equ	0xFF4
  2022                           prodl	equ	0xFF3
  2023                           intcon	equ	0xFF2
  2024                           wreg	equ	0xFE8
  2025                           status	equ	0xFD8
  2026                           
  2027 ;; *************** function _isPOR *****************
  2028 ;; Defined at:
  2029 ;;		line 10 in file "C:\Program Files (x86)\Microchip\xc8\v1.34\sources\pic18\plib\reset\ispor.c"
  2030 ;; Parameters:    Size  Location     Type
  2031 ;;		None
  2032 ;; Auto vars:     Size  Location     Type
  2033 ;;		None
  2034 ;; Return value:  Size  Location     Type
  2035 ;;                  1    wreg      unsigned char 
  2036 ;; Registers used:
  2037 ;;		wreg
  2038 ;; Tracked objects:
  2039 ;;		On entry : 0/0
  2040 ;;		On exit  : 0/0
  2041 ;;		Unchanged: 0/0
  2042 ;; Data sizes:     COMRAM   BANK0   BANK1   BANK2   BANK3   BANK4   BANK5   BANK6   BANK7   BANK8   BANK9  BANK10  BANK1
      +1  BANK12  BANK13  BANK14  BANK15
  2043 ;;      Params:         0       0       0       0       0       0       0       0       0       0       0       0       
      +0       0       0       0       0
  2044 ;;      Locals:         0       0       0       0       0       0       0       0       0       0       0       0       
      +0       0       0       0       0
  2045 ;;      Temps:          0       0       0       0       0       0       0       0       0       0       0       0       
      +0       0       0       0       0
  2046 ;;      Totals:         0       0       0       0       0       0       0       0       0       0       0       0       
      +0       0       0       0       0
  2047 ;;Total ram usage:        0 bytes
  2048 ;; Hardware stack levels used:    1
  2049 ;; Hardware stack levels required when called:    1
  2050 ;; This function calls:
  2051 ;;		Nothing
  2052 ;; This function is called by:
  2053 ;;		_reset_codes
  2054 ;; This function uses a non-reentrant model
  2055 ;;
  2056                           
  2057                           	psect	text17
  2058  00193C                     __ptext17:
  2059                           	opt stack 0
  2060  00193C                     _isPOR:
  2061                           	opt stack 27
  2062                           
  2063                           ;incstack = 0
  2064  00193C  B2D0               	btfsc	4048,1,c	;volatile
  2065  00193E  D00E               	goto	l1218
  2066  001940  A4D0               	btfss	4048,2,c	;volatile
  2067  001942  D00A               	goto	l1214
  2068  001944  B0D0               	btfsc	4048,0,c	;volatile
  2069  001946  D006               	goto	l1210
  2070  001948  B6D0               	btfsc	4048,3,c	;volatile
  2071  00194A  D002               	goto	l1206
  2072  00194C  D003               	goto	l1210
  2073  00194E  D008               	goto	l505
  2074  001950                     l1206:
  2075  001950  0E01               	movlw	1
  2076  001952  D006               	goto	l505
  2077  001954                     l1210:
  2078  001954  0E00               	movlw	0
  2079  001956  D004               	goto	l505
  2080  001958                     l1214:
  2081  001958  0E00               	movlw	0
  2082  00195A  D002               	goto	l505
  2083  00195C                     l1218:
  2084  00195C  0E00               	movlw	0
  2085  00195E  D000               	goto	l505
  2086  001960                     l505:
  2087  001960  0012               	return		;funcret
  2088  001962                     __end_of_isPOR:
  2089                           	opt stack 0
  2090                           stkptr	equ	0xFFC
  2091                           tblptru	equ	0xFF8
  2092                           tblptrh	equ	0xFF7
  2093                           tblptrl	equ	0xFF6
  2094                           tablat	equ	0xFF5
  2095                           prodh	equ	0xFF4
  2096                           prodl	equ	0xFF3
  2097                           intcon	equ	0xFF2
  2098                           wreg	equ	0xFE8
  2099                           status	equ	0xFD8
  2100                           
  2101 ;; *************** function _isBOR *****************
  2102 ;; Defined at:
  2103 ;;		line 12 in file "C:\Program Files (x86)\Microchip\xc8\v1.34\sources\pic18\plib\reset\isbor.c"
  2104 ;; Parameters:    Size  Location     Type
  2105 ;;		None
  2106 ;; Auto vars:     Size  Location     Type
  2107 ;;		None
  2108 ;; Return value:  Size  Location     Type
  2109 ;;                  1    wreg      unsigned char 
  2110 ;; Registers used:
  2111 ;;		wreg
  2112 ;; Tracked objects:
  2113 ;;		On entry : 0/0
  2114 ;;		On exit  : 0/0
  2115 ;;		Unchanged: 0/0
  2116 ;; Data sizes:     COMRAM   BANK0   BANK1   BANK2   BANK3   BANK4   BANK5   BANK6   BANK7   BANK8   BANK9  BANK10  BANK1
      +1  BANK12  BANK13  BANK14  BANK15
  2117 ;;      Params:         0       0       0       0       0       0       0       0       0       0       0       0       
      +0       0       0       0       0
  2118 ;;      Locals:         0       0       0       0       0       0       0       0       0       0       0       0       
      +0       0       0       0       0
  2119 ;;      Temps:          0       0       0       0       0       0       0       0       0       0       0       0       
      +0       0       0       0       0
  2120 ;;      Totals:         0       0       0       0       0       0       0       0       0       0       0       0       
      +0       0       0       0       0
  2121 ;;Total ram usage:        0 bytes
  2122 ;; Hardware stack levels used:    1
  2123 ;; Hardware stack levels required when called:    1
  2124 ;; This function calls:
  2125 ;;		Nothing
  2126 ;; This function is called by:
  2127 ;;		_reset_codes
  2128 ;; This function uses a non-reentrant model
  2129 ;;
  2130                           
  2131                           	psect	text18
  2132  001A4E                     __ptext18:
  2133                           	opt stack 0
  2134  001A4E                     _isBOR:
  2135                           	opt stack 27
  2136                           
  2137                           ;incstack = 0
  2138  001A4E  B0D0               	btfsc	4048,0,c	;volatile
  2139  001A50  D006               	goto	l1266
  2140  001A52  B2D0               	btfsc	4048,1,c	;volatile
  2141  001A54  D002               	goto	l1262
  2142  001A56  D003               	goto	l1266
  2143  001A58  D004               	goto	l496
  2144  001A5A                     l1262:
  2145  001A5A  0E01               	movlw	1
  2146  001A5C  D002               	goto	l496
  2147  001A5E                     l1266:
  2148  001A5E  0E00               	movlw	0
  2149  001A60  D000               	goto	l496
  2150  001A62                     l496:
  2151  001A62  0012               	return		;funcret
  2152  001A64                     __end_of_isBOR:
  2153                           	opt stack 0
  2154                           stkptr	equ	0xFFC
  2155                           tblptru	equ	0xFF8
  2156                           tblptrh	equ	0xFF7
  2157                           tblptrl	equ	0xFF6
  2158                           tablat	equ	0xFF5
  2159                           prodh	equ	0xFF4
  2160                           prodl	equ	0xFF3
  2161                           intcon	equ	0xFF2
  2162                           wreg	equ	0xFE8
  2163                           status	equ	0xFD8
  2164                           
  2165 ;; *************** function _WDTtask *****************
  2166 ;; Defined at:
  2167 ;;		line 369 in file "sumovore.c"
  2168 ;; Parameters:    Size  Location     Type
  2169 ;;		None
  2170 ;; Auto vars:     Size  Location     Type
  2171 ;;		None
  2172 ;; Return value:  Size  Location     Type
  2173 ;;		None               void
  2174 ;; Registers used:
  2175 ;;		wreg, status,2, status,0, tblptrl, tblptrh, tblptru, cstack
  2176 ;; Tracked objects:
  2177 ;;		On entry : 0/0
  2178 ;;		On exit  : 0/0
  2179 ;;		Unchanged: 0/0
  2180 ;; Data sizes:     COMRAM   BANK0   BANK1   BANK2   BANK3   BANK4   BANK5   BANK6   BANK7   BANK8   BANK9  BANK10  BANK1
      +1  BANK12  BANK13  BANK14  BANK15
  2181 ;;      Params:         0       0       0       0       0       0       0       0       0       0       0       0       
      +0       0       0       0       0
  2182 ;;      Locals:         0       0       0       0       0       0       0       0       0       0       0       0       
      +0       0       0       0       0
  2183 ;;      Temps:          0       0       0       0       0       0       0       0       0       0       0       0       
      +0       0       0       0       0
  2184 ;;      Totals:         0       0       0       0       0       0       0       0       0       0       0       0       
      +0       0       0       0       0
  2185 ;;Total ram usage:        0 bytes
  2186 ;; Hardware stack levels used:    1
  2187 ;; Hardware stack levels required when called:    3
  2188 ;; This function calls:
  2189 ;;		_gtrap
  2190 ;;		_printf
  2191 ;; This function is called by:
  2192 ;;		_reset_codes
  2193 ;; This function uses a non-reentrant model
  2194 ;;
  2195                           
  2196                           	psect	text19
  2197  0019E2                     __ptext19:
  2198                           	opt stack 0
  2199  0019E2                     _WDTtask:
  2200                           	opt stack 25
  2201                           
  2202                           ;sumovore.c: 371: printf("<WDT TO>");
  2203                           
  2204                           ;incstack = 0
  2205  0019E2  0E62               	movlw	low STR_4
  2206  0019E4  6E0F               	movwf	printf@f,c
  2207  0019E6  0E10               	movlw	high STR_4
  2208  0019E8  6E10               	movwf	printf@f+1,c
  2209  0019EA  ECEB  F00B         	call	_printf	;wreg free
  2210                           
  2211                           ;sumovore.c: 372: PORTDbits.RD0=!1;
  2212  0019EE  9083               	bcf	3971,0,c	;volatile
  2213                           
  2214                           ;sumovore.c: 373: PORTDbits.RD1=!0;
  2215  0019F0  8283               	bsf	3971,1,c	;volatile
  2216                           
  2217                           ;sumovore.c: 374: PORTDbits.RD2=!1;
  2218  0019F2  9483               	bcf	3971,2,c	;volatile
  2219                           
  2220                           ;sumovore.c: 375: PORTDbits.RD3=!0;
  2221  0019F4  8683               	bsf	3971,3,c	;volatile
  2222                           
  2223                           ;sumovore.c: 376: PORTDbits.RD4=!0;
  2224  0019F6  8883               	bsf	3971,4,c	;volatile
  2225                           
  2226                           ;sumovore.c: 377: gtrap();
  2227  0019F8  ECBD  F00A         	call	_gtrap	;wreg free
  2228  0019FC  0012               	return		;funcret
  2229  0019FE                     __end_of_WDTtask:
  2230                           	opt stack 0
  2231                           stkptr	equ	0xFFC
  2232                           tblptru	equ	0xFF8
  2233                           tblptrh	equ	0xFF7
  2234                           tblptrl	equ	0xFF6
  2235                           tablat	equ	0xFF5
  2236                           prodh	equ	0xFF4
  2237                           prodl	equ	0xFF3
  2238                           intcon	equ	0xFF2
  2239                           wreg	equ	0xFE8
  2240                           status	equ	0xFD8
  2241                           
  2242 ;; *************** function _STKFULtask *****************
  2243 ;; Defined at:
  2244 ;;		line 388 in file "sumovore.c"
  2245 ;; Parameters:    Size  Location     Type
  2246 ;;		None
  2247 ;; Auto vars:     Size  Location     Type
  2248 ;;		None
  2249 ;; Return value:  Size  Location     Type
  2250 ;;		None               void
  2251 ;; Registers used:
  2252 ;;		wreg, status,2, status,0, tblptrl, tblptrh, tblptru, cstack
  2253 ;; Tracked objects:
  2254 ;;		On entry : 0/0
  2255 ;;		On exit  : 0/0
  2256 ;;		Unchanged: 0/0
  2257 ;; Data sizes:     COMRAM   BANK0   BANK1   BANK2   BANK3   BANK4   BANK5   BANK6   BANK7   BANK8   BANK9  BANK10  BANK1
      +1  BANK12  BANK13  BANK14  BANK15
  2258 ;;      Params:         0       0       0       0       0       0       0       0       0       0       0       0       
      +0       0       0       0       0
  2259 ;;      Locals:         0       0       0       0       0       0       0       0       0       0       0       0       
      +0       0       0       0       0
  2260 ;;      Temps:          0       0       0       0       0       0       0       0       0       0       0       0       
      +0       0       0       0       0
  2261 ;;      Totals:         0       0       0       0       0       0       0       0       0       0       0       0       
      +0       0       0       0       0
  2262 ;;Total ram usage:        0 bytes
  2263 ;; Hardware stack levels used:    1
  2264 ;; Hardware stack levels required when called:    3
  2265 ;; This function calls:
  2266 ;;		_gtrap
  2267 ;;		_printf
  2268 ;; This function is called by:
  2269 ;;		_reset_codes
  2270 ;; This function uses a non-reentrant model
  2271 ;;
  2272                           
  2273                           	psect	text20
  2274  0019C4                     __ptext20:
  2275                           	opt stack 0
  2276  0019C4                     _STKFULtask:
  2277                           	opt stack 25
  2278                           
  2279                           ;sumovore.c: 391: STKPTRbits.STKFUL = 0;
  2280                           
  2281                           ;incstack = 0
  2282  0019C4  9EFC               	bcf	stkptr,7,c	;volatile
  2283                           
  2284                           ;sumovore.c: 392: printf("<STKFUL>");
  2285  0019C6  0E59               	movlw	low STR_5
  2286  0019C8  6E0F               	movwf	printf@f,c
  2287  0019CA  0E10               	movlw	high STR_5
  2288  0019CC  6E10               	movwf	printf@f+1,c
  2289  0019CE  ECEB  F00B         	call	_printf	;wreg free
  2290                           
  2291                           ;sumovore.c: 393: PORTDbits.RD0=!1;
  2292  0019D2  9083               	bcf	3971,0,c	;volatile
  2293                           
  2294                           ;sumovore.c: 394: PORTDbits.RD1=!0;
  2295  0019D4  8283               	bsf	3971,1,c	;volatile
  2296                           
  2297                           ;sumovore.c: 395: PORTDbits.RD2=!1;
  2298  0019D6  9483               	bcf	3971,2,c	;volatile
  2299                           
  2300                           ;sumovore.c: 396: PORTDbits.RD3=!0;
  2301  0019D8  8683               	bsf	3971,3,c	;volatile
  2302                           
  2303                           ;sumovore.c: 397: PORTDbits.RD4=!1;
  2304  0019DA  9883               	bcf	3971,4,c	;volatile
  2305                           
  2306                           ;sumovore.c: 398: gtrap();
  2307  0019DC  ECBD  F00A         	call	_gtrap	;wreg free
  2308  0019E0  0012               	return		;funcret
  2309  0019E2                     __end_of_STKFULtask:
  2310                           	opt stack 0
  2311                           stkptr	equ	0xFFC
  2312                           tblptru	equ	0xFF8
  2313                           tblptrh	equ	0xFF7
  2314                           tblptrl	equ	0xFF6
  2315                           tablat	equ	0xFF5
  2316                           prodh	equ	0xFF4
  2317                           prodl	equ	0xFF3
  2318                           intcon	equ	0xFF2
  2319                           wreg	equ	0xFE8
  2320                           status	equ	0xFD8
  2321                           
  2322 ;; *************** function _RESETtask *****************
  2323 ;; Defined at:
  2324 ;;		line 404 in file "sumovore.c"
  2325 ;; Parameters:    Size  Location     Type
  2326 ;;		None
  2327 ;; Auto vars:     Size  Location     Type
  2328 ;;		None
  2329 ;; Return value:  Size  Location     Type
  2330 ;;		None               void
  2331 ;; Registers used:
  2332 ;;		wreg, status,2, status,0, tblptrl, tblptrh, tblptru, cstack
  2333 ;; Tracked objects:
  2334 ;;		On entry : 0/0
  2335 ;;		On exit  : 0/0
  2336 ;;		Unchanged: 0/0
  2337 ;; Data sizes:     COMRAM   BANK0   BANK1   BANK2   BANK3   BANK4   BANK5   BANK6   BANK7   BANK8   BANK9  BANK10  BANK1
      +1  BANK12  BANK13  BANK14  BANK15
  2338 ;;      Params:         0       0       0       0       0       0       0       0       0       0       0       0       
      +0       0       0       0       0
  2339 ;;      Locals:         0       0       0       0       0       0       0       0       0       0       0       0       
      +0       0       0       0       0
  2340 ;;      Temps:          0       0       0       0       0       0       0       0       0       0       0       0       
      +0       0       0       0       0
  2341 ;;      Totals:         0       0       0       0       0       0       0       0       0       0       0       0       
      +0       0       0       0       0
  2342 ;;Total ram usage:        0 bytes
  2343 ;; Hardware stack levels used:    1
  2344 ;; Hardware stack levels required when called:    3
  2345 ;; This function calls:
  2346 ;;		_gtrap
  2347 ;;		_printf
  2348 ;; This function is called by:
  2349 ;;		_reset_codes
  2350 ;; This function uses a non-reentrant model
  2351 ;;
  2352                           
  2353                           	psect	text21
  2354  0019FE                     __ptext21:
  2355                           	opt stack 0
  2356  0019FE                     _RESETtask:
  2357                           	opt stack 25
  2358                           
  2359                           ;sumovore.c: 407: printf(" <reset> ");
  2360                           
  2361                           ;incstack = 0
  2362  0019FE  0E4F               	movlw	low STR_6
  2363  001A00  6E0F               	movwf	printf@f,c
  2364  001A02  0E10               	movlw	high STR_6
  2365  001A04  6E10               	movwf	printf@f+1,c
  2366  001A06  ECEB  F00B         	call	_printf	;wreg free
  2367                           
  2368                           ;sumovore.c: 408: PORTDbits.RD0=!1;
  2369  001A0A  9083               	bcf	3971,0,c	;volatile
  2370                           
  2371                           ;sumovore.c: 409: PORTDbits.RD1=!0;
  2372  001A0C  8283               	bsf	3971,1,c	;volatile
  2373                           
  2374                           ;sumovore.c: 410: PORTDbits.RD2=!1;
  2375  001A0E  9483               	bcf	3971,2,c	;volatile
  2376                           
  2377                           ;sumovore.c: 411: PORTDbits.RD3=!1;
  2378  001A10  9683               	bcf	3971,3,c	;volatile
  2379                           
  2380                           ;sumovore.c: 412: PORTDbits.RD4=!1;
  2381  001A12  9883               	bcf	3971,4,c	;volatile
  2382                           
  2383                           ;sumovore.c: 413: gtrap();
  2384  001A14  ECBD  F00A         	call	_gtrap	;wreg free
  2385  001A18  0012               	return		;funcret
  2386  001A1A                     __end_of_RESETtask:
  2387                           	opt stack 0
  2388                           stkptr	equ	0xFFC
  2389                           tblptru	equ	0xFF8
  2390                           tblptrh	equ	0xFF7
  2391                           tblptrl	equ	0xFF6
  2392                           tablat	equ	0xFF5
  2393                           prodh	equ	0xFF4
  2394                           prodl	equ	0xFF3
  2395                           intcon	equ	0xFF2
  2396                           wreg	equ	0xFE8
  2397                           status	equ	0xFD8
  2398                           
  2399 ;; *************** function _PORtask *****************
  2400 ;; Defined at:
  2401 ;;		line 306 in file "sumovore.c"
  2402 ;; Parameters:    Size  Location     Type
  2403 ;;		None
  2404 ;; Auto vars:     Size  Location     Type
  2405 ;;  count2          4   23[COMRAM] unsigned long 
  2406 ;;  count1          4   19[COMRAM] unsigned long 
  2407 ;; Return value:  Size  Location     Type
  2408 ;;		None               void
  2409 ;; Registers used:
  2410 ;;		wreg, status,2, status,0, tblptrl, tblptrh, tblptru, cstack
  2411 ;; Tracked objects:
  2412 ;;		On entry : 0/0
  2413 ;;		On exit  : 0/0
  2414 ;;		Unchanged: 0/0
  2415 ;; Data sizes:     COMRAM   BANK0   BANK1   BANK2   BANK3   BANK4   BANK5   BANK6   BANK7   BANK8   BANK9  BANK10  BANK1
      +1  BANK12  BANK13  BANK14  BANK15
  2416 ;;      Params:         0       0       0       0       0       0       0       0       0       0       0       0       
      +0       0       0       0       0
  2417 ;;      Locals:         8       0       0       0       0       0       0       0       0       0       0       0       
      +0       0       0       0       0
  2418 ;;      Temps:          0       0       0       0       0       0       0       0       0       0       0       0       
      +0       0       0       0       0
  2419 ;;      Totals:         8       0       0       0       0       0       0       0       0       0       0       0       
      +0       0       0       0       0
  2420 ;;Total ram usage:        8 bytes
  2421 ;; Hardware stack levels used:    1
  2422 ;; Hardware stack levels required when called:    3
  2423 ;; This function calls:
  2424 ;;		_StatusReset
  2425 ;;		_printf
  2426 ;; This function is called by:
  2427 ;;		_reset_codes
  2428 ;; This function uses a non-reentrant model
  2429 ;;
  2430                           
  2431                           	psect	text22
  2432  0012D2                     __ptext22:
  2433                           	opt stack 0
  2434  0012D2                     _PORtask:
  2435                           	opt stack 25
  2436                           
  2437                           ;sumovore.c: 308: unsigned long count1=0, count2=0;
  2438                           
  2439                           ;incstack = 0
  2440  0012D2  0E00               	movlw	0
  2441  0012D4  6E14               	movwf	PORtask@count1,c
  2442  0012D6  0E00               	movlw	0
  2443  0012D8  6E15               	movwf	PORtask@count1+1,c
  2444  0012DA  0E00               	movlw	0
  2445  0012DC  6E16               	movwf	PORtask@count1+2,c
  2446  0012DE  0E00               	movlw	0
  2447  0012E0  6E17               	movwf	PORtask@count1+3,c
  2448  0012E2  0E00               	movlw	0
  2449  0012E4  6E18               	movwf	PORtask@count2,c
  2450  0012E6  0E00               	movlw	0
  2451  0012E8  6E19               	movwf	PORtask@count2+1,c
  2452  0012EA  0E00               	movlw	0
  2453  0012EC  6E1A               	movwf	PORtask@count2+2,c
  2454  0012EE  0E00               	movlw	0
  2455  0012F0  6E1B               	movwf	PORtask@count2+3,c
  2456                           
  2457                           ;sumovore.c: 309: StatusReset();
  2458  0012F2  EC66  F00D         	call	_StatusReset	;wreg free
  2459                           
  2460                           ;sumovore.c: 311: printf("<POR>");
  2461  0012F6  0E78               	movlw	low STR_2
  2462  0012F8  6E0F               	movwf	printf@f,c
  2463  0012FA  0E10               	movlw	high STR_2
  2464  0012FC  6E10               	movwf	printf@f+1,c
  2465  0012FE  ECEB  F00B         	call	_printf	;wreg free
  2466                           
  2467                           ;sumovore.c: 312: PORTDbits.RD0=!1;
  2468  001302  9083               	bcf	3971,0,c	;volatile
  2469                           
  2470                           ;sumovore.c: 313: PORTDbits.RD1=!0;
  2471  001304  8283               	bsf	3971,1,c	;volatile
  2472                           
  2473                           ;sumovore.c: 314: PORTDbits.RD2=!0;
  2474  001306  8483               	bsf	3971,2,c	;volatile
  2475                           
  2476                           ;sumovore.c: 315: PORTDbits.RD3=!0;
  2477  001308  8683               	bsf	3971,3,c	;volatile
  2478                           
  2479                           ;sumovore.c: 316: PORTDbits.RD4=!0;
  2480  00130A  8883               	bsf	3971,4,c	;volatile
  2481                           
  2482                           ;sumovore.c: 317: while(count1<10u)
  2483  00130C  D02D               	goto	l208
  2484  00130E                     l209:
  2485  00130E  0004               	clrwdt		;# 
  2486                           
  2487                           ;sumovore.c: 320: if (count2==30000u)
  2488  001310  0E30               	movlw	48
  2489  001312  1818               	xorwf	PORtask@count2,w,c
  2490  001314  E117               	bnz	l1782
  2491  001316  0E75               	movlw	117
  2492  001318  1819               	xorwf	PORtask@count2+1,w,c
  2493  00131A  101A               	iorwf	PORtask@count2+2,w,c
  2494  00131C  101B               	iorwf	PORtask@count2+3,w,c
  2495  00131E  A4D8               	btfss	status,2,c
  2496  001320  D011               	goto	l1782
  2497                           
  2498                           ;sumovore.c: 321: {
  2499                           ;sumovore.c: 322: count2=0;
  2500  001322  0E00               	movlw	0
  2501  001324  6E18               	movwf	PORtask@count2,c
  2502  001326  0E00               	movlw	0
  2503  001328  6E19               	movwf	PORtask@count2+1,c
  2504  00132A  0E00               	movlw	0
  2505  00132C  6E1A               	movwf	PORtask@count2+2,c
  2506  00132E  0E00               	movlw	0
  2507  001330  6E1B               	movwf	PORtask@count2+3,c
  2508                           
  2509                           ;sumovore.c: 323: count1++;
  2510  001332  0E01               	movlw	1
  2511  001334  2614               	addwf	PORtask@count1,f,c
  2512  001336  0E00               	movlw	0
  2513  001338  2215               	addwfc	PORtask@count1+1,f,c
  2514  00133A  2216               	addwfc	PORtask@count1+2,f,c
  2515  00133C  2217               	addwfc	PORtask@count1+3,f,c
  2516                           
  2517                           ;sumovore.c: 324: PORTDbits.RD0=!1;
  2518  00133E  9083               	bcf	3971,0,c	;volatile
  2519                           
  2520                           ;sumovore.c: 325: PORTDbits.RD1=!0;
  2521  001340  8283               	bsf	3971,1,c	;volatile
  2522                           
  2523                           ;sumovore.c: 326: }
  2524  001342  D00C               	goto	l1786
  2525  001344                     l1782:
  2526                           
  2527                           ;sumovore.c: 327: else if (count2==15000u)
  2528  001344  0E98               	movlw	152
  2529  001346  1818               	xorwf	PORtask@count2,w,c
  2530  001348  E109               	bnz	l1786
  2531  00134A  0E3A               	movlw	58
  2532  00134C  1819               	xorwf	PORtask@count2+1,w,c
  2533  00134E  101A               	iorwf	PORtask@count2+2,w,c
  2534  001350  101B               	iorwf	PORtask@count2+3,w,c
  2535  001352  A4D8               	btfss	status,2,c
  2536  001354  D003               	goto	l1786
  2537                           
  2538                           ;sumovore.c: 328: {
  2539                           ;sumovore.c: 329: PORTDbits.RD0=!0;
  2540  001356  8083               	bsf	3971,0,c	;volatile
  2541                           
  2542                           ;sumovore.c: 330: PORTDbits.RD1=!1;
  2543  001358  9283               	bcf	3971,1,c	;volatile
  2544  00135A  D000               	goto	l1786
  2545  00135C                     l1786:
  2546                           
  2547                           ;sumovore.c: 331: }
  2548                           ;sumovore.c: 332: count2++;
  2549  00135C  0E01               	movlw	1
  2550  00135E  2618               	addwf	PORtask@count2,f,c
  2551  001360  0E00               	movlw	0
  2552  001362  2219               	addwfc	PORtask@count2+1,f,c
  2553  001364  221A               	addwfc	PORtask@count2+2,f,c
  2554  001366  221B               	addwfc	PORtask@count2+3,f,c
  2555  001368                     l208:
  2556  001368  5017               	movf	PORtask@count1+3,w,c
  2557  00136A  1016               	iorwf	PORtask@count1+2,w,c
  2558  00136C  1015               	iorwf	PORtask@count1+1,w,c
  2559  00136E  E106               	bnz	l214
  2560  001370  0E0A               	movlw	10
  2561  001372  5C14               	subwf	PORtask@count1,w,c
  2562  001374  B0D8               	btfsc	status,0,c
  2563  001376  D002               	goto	l214
  2564  001378  D7CA               	goto	l209
  2565  00137A  D000               	goto	l214
  2566  00137C                     l214:
  2567  00137C  0012               	return		;funcret
  2568  00137E                     __end_of_PORtask:
  2569                           	opt stack 0
  2570                           stkptr	equ	0xFFC
  2571                           tblptru	equ	0xFF8
  2572                           tblptrh	equ	0xFF7
  2573                           tblptrl	equ	0xFF6
  2574                           tablat	equ	0xFF5
  2575                           prodh	equ	0xFF4
  2576                           prodl	equ	0xFF3
  2577                           intcon	equ	0xFF2
  2578                           wreg	equ	0xFE8
  2579                           status	equ	0xFD8
  2580                           
  2581 ;; *************** function _BORtask *****************
  2582 ;; Defined at:
  2583 ;;		line 348 in file "sumovore.c"
  2584 ;; Parameters:    Size  Location     Type
  2585 ;;		None
  2586 ;; Auto vars:     Size  Location     Type
  2587 ;;		None
  2588 ;; Return value:  Size  Location     Type
  2589 ;;		None               void
  2590 ;; Registers used:
  2591 ;;		wreg, status,2, status,0, tblptrl, tblptrh, tblptru, cstack
  2592 ;; Tracked objects:
  2593 ;;		On entry : 0/0
  2594 ;;		On exit  : 0/0
  2595 ;;		Unchanged: 0/0
  2596 ;; Data sizes:     COMRAM   BANK0   BANK1   BANK2   BANK3   BANK4   BANK5   BANK6   BANK7   BANK8   BANK9  BANK10  BANK1
      +1  BANK12  BANK13  BANK14  BANK15
  2597 ;;      Params:         0       0       0       0       0       0       0       0       0       0       0       0       
      +0       0       0       0       0
  2598 ;;      Locals:         0       0       0       0       0       0       0       0       0       0       0       0       
      +0       0       0       0       0
  2599 ;;      Temps:          0       0       0       0       0       0       0       0       0       0       0       0       
      +0       0       0       0       0
  2600 ;;      Totals:         0       0       0       0       0       0       0       0       0       0       0       0       
      +0       0       0       0       0
  2601 ;;Total ram usage:        0 bytes
  2602 ;; Hardware stack levels used:    1
  2603 ;; Hardware stack levels required when called:    3
  2604 ;; This function calls:
  2605 ;;		_StatusReset
  2606 ;;		_gtrap
  2607 ;;		_printf
  2608 ;; This function is called by:
  2609 ;;		_reset_codes
  2610 ;; This function uses a non-reentrant model
  2611 ;;
  2612                           
  2613                           	psect	text23
  2614  001984                     __ptext23:
  2615                           	opt stack 0
  2616  001984                     _BORtask:
  2617                           	opt stack 25
  2618                           
  2619                           ;sumovore.c: 350: StatusReset();
  2620                           
  2621                           ;incstack = 0
  2622  001984  EC66  F00D         	call	_StatusReset	;wreg free
  2623                           
  2624                           ;sumovore.c: 352: printf("<BOR>");
  2625  001988  0E72               	movlw	low STR_3
  2626  00198A  6E0F               	movwf	printf@f,c
  2627  00198C  0E10               	movlw	high STR_3
  2628  00198E  6E10               	movwf	printf@f+1,c
  2629  001990  ECEB  F00B         	call	_printf	;wreg free
  2630                           
  2631                           ;sumovore.c: 353: PORTDbits.RD0=!0;
  2632  001994  8083               	bsf	3971,0,c	;volatile
  2633                           
  2634                           ;sumovore.c: 354: PORTDbits.RD1=!0;
  2635  001996  8283               	bsf	3971,1,c	;volatile
  2636                           
  2637                           ;sumovore.c: 355: PORTDbits.RD2=!0;
  2638  001998  8483               	bsf	3971,2,c	;volatile
  2639                           
  2640                           ;sumovore.c: 356: PORTDbits.RD3=!0;
  2641  00199A  8683               	bsf	3971,3,c	;volatile
  2642                           
  2643                           ;sumovore.c: 357: PORTDbits.RD4=!1;
  2644  00199C  9883               	bcf	3971,4,c	;volatile
  2645                           
  2646                           ;sumovore.c: 358: gtrap();
  2647  00199E  ECBD  F00A         	call	_gtrap	;wreg free
  2648  0019A2  0012               	return		;funcret
  2649  0019A4                     __end_of_BORtask:
  2650                           	opt stack 0
  2651                           stkptr	equ	0xFFC
  2652                           tblptru	equ	0xFF8
  2653                           tblptrh	equ	0xFF7
  2654                           tblptrl	equ	0xFF6
  2655                           tablat	equ	0xFF5
  2656                           prodh	equ	0xFF4
  2657                           prodl	equ	0xFF3
  2658                           intcon	equ	0xFF2
  2659                           wreg	equ	0xFE8
  2660                           status	equ	0xFD8
  2661                           
  2662 ;; *************** function _StatusReset *****************
  2663 ;; Defined at:
  2664 ;;		line 10 in file "C:\Program Files (x86)\Microchip\xc8\v1.34\sources\pic18\plib\reset\statrst.c"
  2665 ;; Parameters:    Size  Location     Type
  2666 ;;		None
  2667 ;; Auto vars:     Size  Location     Type
  2668 ;;		None
  2669 ;; Return value:  Size  Location     Type
  2670 ;;		None               void
  2671 ;; Registers used:
  2672 ;;		None
  2673 ;; Tracked objects:
  2674 ;;		On entry : 0/0
  2675 ;;		On exit  : 0/0
  2676 ;;		Unchanged: 0/0
  2677 ;; Data sizes:     COMRAM   BANK0   BANK1   BANK2   BANK3   BANK4   BANK5   BANK6   BANK7   BANK8   BANK9  BANK10  BANK1
      +1  BANK12  BANK13  BANK14  BANK15
  2678 ;;      Params:         0       0       0       0       0       0       0       0       0       0       0       0       
      +0       0       0       0       0
  2679 ;;      Locals:         0       0       0       0       0       0       0       0       0       0       0       0       
      +0       0       0       0       0
  2680 ;;      Temps:          0       0       0       0       0       0       0       0       0       0       0       0       
      +0       0       0       0       0
  2681 ;;      Totals:         0       0       0       0       0       0       0       0       0       0       0       0       
      +0       0       0       0       0
  2682 ;;Total ram usage:        0 bytes
  2683 ;; Hardware stack levels used:    1
  2684 ;; Hardware stack levels required when called:    1
  2685 ;; This function calls:
  2686 ;;		Nothing
  2687 ;; This function is called by:
  2688 ;;		_PORtask
  2689 ;;		_BORtask
  2690 ;; This function uses a non-reentrant model
  2691 ;;
  2692                           
  2693                           	psect	text24
  2694  001ACC                     __ptext24:
  2695                           	opt stack 0
  2696  001ACC                     _StatusReset:
  2697                           	opt stack 26
  2698                           
  2699                           ;incstack = 0
  2700  001ACC  82D0               	bsf	4048,1,c	;volatile
  2701  001ACE  80D0               	bsf	4048,0,c	;volatile
  2702  001AD0  0012               	return		;funcret
  2703  001AD2                     __end_of_StatusReset:
  2704                           	opt stack 0
  2705                           stkptr	equ	0xFFC
  2706                           tblptru	equ	0xFF8
  2707                           tblptrh	equ	0xFF7
  2708                           tblptrl	equ	0xFF6
  2709                           tablat	equ	0xFF5
  2710                           prodh	equ	0xFF4
  2711                           prodl	equ	0xFF3
  2712                           intcon	equ	0xFF2
  2713                           wreg	equ	0xFE8
  2714                           status	equ	0xFD8
  2715                           
  2716 ;; *************** function _openPORTE *****************
  2717 ;; Defined at:
  2718 ;;		line 178 in file "sumovore.c"
  2719 ;; Parameters:    Size  Location     Type
  2720 ;;		None
  2721 ;; Auto vars:     Size  Location     Type
  2722 ;;		None
  2723 ;; Return value:  Size  Location     Type
  2724 ;;		None               void
  2725 ;; Registers used:
  2726 ;;		wreg, status,2
  2727 ;; Tracked objects:
  2728 ;;		On entry : 0/0
  2729 ;;		On exit  : 0/0
  2730 ;;		Unchanged: 0/0
  2731 ;; Data sizes:     COMRAM   BANK0   BANK1   BANK2   BANK3   BANK4   BANK5   BANK6   BANK7   BANK8   BANK9  BANK10  BANK1
      +1  BANK12  BANK13  BANK14  BANK15
  2732 ;;      Params:         0       0       0       0       0       0       0       0       0       0       0       0       
      +0       0       0       0       0
  2733 ;;      Locals:         0       0       0       0       0       0       0       0       0       0       0       0       
      +0       0       0       0       0
  2734 ;;      Temps:          0       0       0       0       0       0       0       0       0       0       0       0       
      +0       0       0       0       0
  2735 ;;      Totals:         0       0       0       0       0       0       0       0       0       0       0       0       
      +0       0       0       0       0
  2736 ;;Total ram usage:        0 bytes
  2737 ;; Hardware stack levels used:    1
  2738 ;; Hardware stack levels required when called:    1
  2739 ;; This function calls:
  2740 ;;		Nothing
  2741 ;; This function is called by:
  2742 ;;		_initialization
  2743 ;; This function uses a non-reentrant model
  2744 ;;
  2745                           
  2746                           	psect	text25
  2747  001AD2                     __ptext25:
  2748                           	opt stack 0
  2749  001AD2                     _openPORTE:
  2750                           	opt stack 28
  2751                           
  2752                           ;sumovore.c: 180: TRISE = 0b000;
  2753                           
  2754                           ;incstack = 0
  2755  001AD2  0E00               	movlw	0
  2756  001AD4  6E96               	movwf	3990,c	;volatile
  2757  001AD6  0012               	return		;funcret
  2758  001AD8                     __end_of_openPORTE:
  2759                           	opt stack 0
  2760                           stkptr	equ	0xFFC
  2761                           tblptru	equ	0xFF8
  2762                           tblptrh	equ	0xFF7
  2763                           tblptrl	equ	0xFF6
  2764                           tablat	equ	0xFF5
  2765                           prodh	equ	0xFF4
  2766                           prodl	equ	0xFF3
  2767                           intcon	equ	0xFF2
  2768                           wreg	equ	0xFE8
  2769                           status	equ	0xFD8
  2770                           
  2771 ;; *************** function _openPORTCforUSART *****************
  2772 ;; Defined at:
  2773 ;;		line 124 in file "sumovore.c"
  2774 ;; Parameters:    Size  Location     Type
  2775 ;;		None
  2776 ;; Auto vars:     Size  Location     Type
  2777 ;;		None
  2778 ;; Return value:  Size  Location     Type
  2779 ;;		None               void
  2780 ;; Registers used:
  2781 ;;		None
  2782 ;; Tracked objects:
  2783 ;;		On entry : 0/0
  2784 ;;		On exit  : 0/0
  2785 ;;		Unchanged: 0/0
  2786 ;; Data sizes:     COMRAM   BANK0   BANK1   BANK2   BANK3   BANK4   BANK5   BANK6   BANK7   BANK8   BANK9  BANK10  BANK1
      +1  BANK12  BANK13  BANK14  BANK15
  2787 ;;      Params:         0       0       0       0       0       0       0       0       0       0       0       0       
      +0       0       0       0       0
  2788 ;;      Locals:         0       0       0       0       0       0       0       0       0       0       0       0       
      +0       0       0       0       0
  2789 ;;      Temps:          0       0       0       0       0       0       0       0       0       0       0       0       
      +0       0       0       0       0
  2790 ;;      Totals:         0       0       0       0       0       0       0       0       0       0       0       0       
      +0       0       0       0       0
  2791 ;;Total ram usage:        0 bytes
  2792 ;; Hardware stack levels used:    1
  2793 ;; Hardware stack levels required when called:    1
  2794 ;; This function calls:
  2795 ;;		Nothing
  2796 ;; This function is called by:
  2797 ;;		_initialization
  2798 ;; This function uses a non-reentrant model
  2799 ;;
  2800                           
  2801                           	psect	text26
  2802  001AD8                     __ptext26:
  2803                           	opt stack 0
  2804  001AD8                     _openPORTCforUSART:
  2805                           	opt stack 28
  2806                           
  2807                           ;sumovore.c: 126: TRISCbits.TRISC6 = 0;
  2808                           
  2809                           ;incstack = 0
  2810  001AD8  9C94               	bcf	3988,6,c	;volatile
  2811                           
  2812                           ;sumovore.c: 127: TRISCbits.TRISC7 = 1;
  2813  001ADA  8E94               	bsf	3988,7,c	;volatile
  2814  001ADC  0012               	return		;funcret
  2815  001ADE                     __end_of_openPORTCforUSART:
  2816                           	opt stack 0
  2817                           stkptr	equ	0xFFC
  2818                           tblptru	equ	0xFF8
  2819                           tblptrh	equ	0xFF7
  2820                           tblptrl	equ	0xFF6
  2821                           tablat	equ	0xFF5
  2822                           prodh	equ	0xFF4
  2823                           prodl	equ	0xFF3
  2824                           intcon	equ	0xFF2
  2825                           wreg	equ	0xFE8
  2826                           status	equ	0xFD8
  2827                           
  2828 ;; *************** function _openPORTCforPWM *****************
  2829 ;; Defined at:
  2830 ;;		line 133 in file "sumovore.c"
  2831 ;; Parameters:    Size  Location     Type
  2832 ;;		None
  2833 ;; Auto vars:     Size  Location     Type
  2834 ;;		None
  2835 ;; Return value:  Size  Location     Type
  2836 ;;		None               void
  2837 ;; Registers used:
  2838 ;;		None
  2839 ;; Tracked objects:
  2840 ;;		On entry : 0/0
  2841 ;;		On exit  : 0/0
  2842 ;;		Unchanged: 0/0
  2843 ;; Data sizes:     COMRAM   BANK0   BANK1   BANK2   BANK3   BANK4   BANK5   BANK6   BANK7   BANK8   BANK9  BANK10  BANK1
      +1  BANK12  BANK13  BANK14  BANK15
  2844 ;;      Params:         0       0       0       0       0       0       0       0       0       0       0       0       
      +0       0       0       0       0
  2845 ;;      Locals:         0       0       0       0       0       0       0       0       0       0       0       0       
      +0       0       0       0       0
  2846 ;;      Temps:          0       0       0       0       0       0       0       0       0       0       0       0       
      +0       0       0       0       0
  2847 ;;      Totals:         0       0       0       0       0       0       0       0       0       0       0       0       
      +0       0       0       0       0
  2848 ;;Total ram usage:        0 bytes
  2849 ;; Hardware stack levels used:    1
  2850 ;; Hardware stack levels required when called:    1
  2851 ;; This function calls:
  2852 ;;		Nothing
  2853 ;; This function is called by:
  2854 ;;		_initialization
  2855 ;; This function uses a non-reentrant model
  2856 ;;
  2857                           
  2858                           	psect	text27
  2859  001AAA                     __ptext27:
  2860                           	opt stack 0
  2861  001AAA                     _openPORTCforPWM:
  2862                           	opt stack 28
  2863                           
  2864                           ;sumovore.c: 135: TRISCbits.TRISC0 = 0;
  2865                           
  2866                           ;incstack = 0
  2867  001AAA  9094               	bcf	3988,0,c	;volatile
  2868                           
  2869                           ;sumovore.c: 136: TRISCbits.TRISC1 = 0;
  2870  001AAC  9294               	bcf	3988,1,c	;volatile
  2871                           
  2872                           ;sumovore.c: 137: TRISCbits.TRISC2 = 0;
  2873  001AAE  9494               	bcf	3988,2,c	;volatile
  2874                           
  2875                           ;sumovore.c: 138: TRISCbits.TRISC3 = 0;
  2876  001AB0  9694               	bcf	3988,3,c	;volatile
  2877                           
  2878                           ;sumovore.c: 139: TRISCbits.TRISC4 = 0;
  2879  001AB2  9894               	bcf	3988,4,c	;volatile
  2880                           
  2881                           ;sumovore.c: 140: TRISCbits.TRISC5 = 0;
  2882  001AB4  9A94               	bcf	3988,5,c	;volatile
  2883  001AB6  0012               	return		;funcret
  2884  001AB8                     __end_of_openPORTCforPWM:
  2885                           	opt stack 0
  2886                           stkptr	equ	0xFFC
  2887                           tblptru	equ	0xFF8
  2888                           tblptrh	equ	0xFF7
  2889                           tblptrl	equ	0xFF6
  2890                           tablat	equ	0xFF5
  2891                           prodh	equ	0xFF4
  2892                           prodl	equ	0xFF3
  2893                           intcon	equ	0xFF2
  2894                           wreg	equ	0xFE8
  2895                           status	equ	0xFD8
  2896                           
  2897 ;; *************** function _openPORTB *****************
  2898 ;; Defined at:
  2899 ;;		line 158 in file "sumovore.c"
  2900 ;; Parameters:    Size  Location     Type
  2901 ;;		None
  2902 ;; Auto vars:     Size  Location     Type
  2903 ;;		None
  2904 ;; Return value:  Size  Location     Type
  2905 ;;		None               void
  2906 ;; Registers used:
  2907 ;;		wreg, status,2
  2908 ;; Tracked objects:
  2909 ;;		On entry : 0/0
  2910 ;;		On exit  : 0/0
  2911 ;;		Unchanged: 0/0
  2912 ;; Data sizes:     COMRAM   BANK0   BANK1   BANK2   BANK3   BANK4   BANK5   BANK6   BANK7   BANK8   BANK9  BANK10  BANK1
      +1  BANK12  BANK13  BANK14  BANK15
  2913 ;;      Params:         0       0       0       0       0       0       0       0       0       0       0       0       
      +0       0       0       0       0
  2914 ;;      Locals:         0       0       0       0       0       0       0       0       0       0       0       0       
      +0       0       0       0       0
  2915 ;;      Temps:          0       0       0       0       0       0       0       0       0       0       0       0       
      +0       0       0       0       0
  2916 ;;      Totals:         0       0       0       0       0       0       0       0       0       0       0       0       
      +0       0       0       0       0
  2917 ;;Total ram usage:        0 bytes
  2918 ;; Hardware stack levels used:    1
  2919 ;; Hardware stack levels required when called:    1
  2920 ;; This function calls:
  2921 ;;		Nothing
  2922 ;; This function is called by:
  2923 ;;		_initialization
  2924 ;; This function uses a non-reentrant model
  2925 ;;
  2926                           
  2927                           	psect	text28
  2928  001ADE                     __ptext28:
  2929                           	opt stack 0
  2930  001ADE                     _openPORTB:
  2931                           	opt stack 28
  2932                           
  2933                           ;sumovore.c: 160: TRISB = 0B11000000;
  2934                           
  2935                           ;incstack = 0
  2936  001ADE  0EC0               	movlw	192
  2937  001AE0  6E93               	movwf	3987,c	;volatile
  2938  001AE2  0012               	return		;funcret
  2939  001AE4                     __end_of_openPORTB:
  2940                           	opt stack 0
  2941                           stkptr	equ	0xFFC
  2942                           tblptru	equ	0xFF8
  2943                           tblptrh	equ	0xFF7
  2944                           tblptrl	equ	0xFF6
  2945                           tablat	equ	0xFF5
  2946                           prodh	equ	0xFF4
  2947                           prodl	equ	0xFF3
  2948                           intcon	equ	0xFF2
  2949                           wreg	equ	0xFE8
  2950                           status	equ	0xFD8
  2951                           
  2952 ;; *************** function _openPORTA *****************
  2953 ;; Defined at:
  2954 ;;		line 147 in file "sumovore.c"
  2955 ;; Parameters:    Size  Location     Type
  2956 ;;		None
  2957 ;; Auto vars:     Size  Location     Type
  2958 ;;		None
  2959 ;; Return value:  Size  Location     Type
  2960 ;;		None               void
  2961 ;; Registers used:
  2962 ;;		wreg, status,2
  2963 ;; Tracked objects:
  2964 ;;		On entry : 0/0
  2965 ;;		On exit  : 0/0
  2966 ;;		Unchanged: 0/0
  2967 ;; Data sizes:     COMRAM   BANK0   BANK1   BANK2   BANK3   BANK4   BANK5   BANK6   BANK7   BANK8   BANK9  BANK10  BANK1
      +1  BANK12  BANK13  BANK14  BANK15
  2968 ;;      Params:         0       0       0       0       0       0       0       0       0       0       0       0       
      +0       0       0       0       0
  2969 ;;      Locals:         0       0       0       0       0       0       0       0       0       0       0       0       
      +0       0       0       0       0
  2970 ;;      Temps:          0       0       0       0       0       0       0       0       0       0       0       0       
      +0       0       0       0       0
  2971 ;;      Totals:         0       0       0       0       0       0       0       0       0       0       0       0       
      +0       0       0       0       0
  2972 ;;Total ram usage:        0 bytes
  2973 ;; Hardware stack levels used:    1
  2974 ;; Hardware stack levels required when called:    1
  2975 ;; This function calls:
  2976 ;;		Nothing
  2977 ;; This function is called by:
  2978 ;;		_initialization
  2979 ;; This function uses a non-reentrant model
  2980 ;;
  2981                           
  2982                           	psect	text29
  2983  001AE4                     __ptext29:
  2984                           	opt stack 0
  2985  001AE4                     _openPORTA:
  2986                           	opt stack 28
  2987                           
  2988                           ;sumovore.c: 149: TRISA = 0B11101111;
  2989                           
  2990                           ;incstack = 0
  2991  001AE4  0EEF               	movlw	239
  2992  001AE6  6E92               	movwf	3986,c	;volatile
  2993  001AE8  0012               	return		;funcret
  2994  001AEA                     __end_of_openPORTA:
  2995                           	opt stack 0
  2996                           stkptr	equ	0xFFC
  2997                           tblptru	equ	0xFF8
  2998                           tblptrh	equ	0xFF7
  2999                           tblptrl	equ	0xFF6
  3000                           tablat	equ	0xFF5
  3001                           prodh	equ	0xFF4
  3002                           prodl	equ	0xFF3
  3003                           intcon	equ	0xFF2
  3004                           wreg	equ	0xFE8
  3005                           status	equ	0xFD8
  3006                           
  3007 ;; *************** function _openLVD *****************
  3008 ;; Defined at:
  3009 ;;		line 427 in file "sumovore.c"
  3010 ;; Parameters:    Size  Location     Type
  3011 ;;		None
  3012 ;; Auto vars:     Size  Location     Type
  3013 ;;		None
  3014 ;; Return value:  Size  Location     Type
  3015 ;;		None               void
  3016 ;; Registers used:
  3017 ;;		None
  3018 ;; Tracked objects:
  3019 ;;		On entry : 0/0
  3020 ;;		On exit  : 0/0
  3021 ;;		Unchanged: 0/0
  3022 ;; Data sizes:     COMRAM   BANK0   BANK1   BANK2   BANK3   BANK4   BANK5   BANK6   BANK7   BANK8   BANK9  BANK10  BANK1
      +1  BANK12  BANK13  BANK14  BANK15
  3023 ;;      Params:         0       0       0       0       0       0       0       0       0       0       0       0       
      +0       0       0       0       0
  3024 ;;      Locals:         0       0       0       0       0       0       0       0       0       0       0       0       
      +0       0       0       0       0
  3025 ;;      Temps:          0       0       0       0       0       0       0       0       0       0       0       0       
      +0       0       0       0       0
  3026 ;;      Totals:         0       0       0       0       0       0       0       0       0       0       0       0       
      +0       0       0       0       0
  3027 ;;Total ram usage:        0 bytes
  3028 ;; Hardware stack levels used:    1
  3029 ;; Hardware stack levels required when called:    1
  3030 ;; This function calls:
  3031 ;;		Nothing
  3032 ;; This function is called by:
  3033 ;;		_initialization
  3034 ;; This function uses a non-reentrant model
  3035 ;;
  3036                           
  3037                           	psect	text30
  3038  001A36                     __ptext30:
  3039                           	opt stack 0
  3040  001A36                     _openLVD:
  3041                           	opt stack 28
  3042                           
  3043                           ;sumovore.c: 429: RCONbits.IPEN = 1;
  3044                           
  3045                           ;incstack = 0
  3046  001A36  8ED0               	bsf	4048,7,c	;volatile
  3047                           
  3048                           ;sumovore.c: 430: HLVDCONbits.HLVDEN = 1;
  3049  001A38  88D2               	bsf	4050,4,c	;volatile
  3050                           
  3051                           ;sumovore.c: 432: IPR2bits.HLVDIP = 1;
  3052  001A3A  84A2               	bsf	4002,2,c	;volatile
  3053                           
  3054                           ;sumovore.c: 433: HLVDCONbits.VDIRMAG = 0;
  3055  001A3C  9ED2               	bcf	4050,7,c	;volatile
  3056                           
  3057                           ;sumovore.c: 435: HLVDCONbits.HLVDL3 = 1;
  3058  001A3E  86D2               	bsf	4050,3,c	;volatile
  3059                           
  3060                           ;sumovore.c: 436: HLVDCONbits.HLVDL2 = 1;
  3061  001A40  84D2               	bsf	4050,2,c	;volatile
  3062                           
  3063                           ;sumovore.c: 437: HLVDCONbits.HLVDL1 = 1;
  3064  001A42  82D2               	bsf	4050,1,c	;volatile
  3065                           
  3066                           ;sumovore.c: 438: HLVDCONbits.HLVDL0 = 0;
  3067  001A44  90D2               	bcf	4050,0,c	;volatile
  3068                           
  3069                           ;sumovore.c: 439: PIR2bits.HLVDIF = 0;
  3070  001A46  94A1               	bcf	4001,2,c	;volatile
  3071                           
  3072                           ;sumovore.c: 440: PIE2bits.HLVDIE = 1;
  3073  001A48  84A0               	bsf	4000,2,c	;volatile
  3074                           
  3075                           ;sumovore.c: 441: INTCONbits.GIEH = 1;
  3076  001A4A  8EF2               	bsf	intcon,7,c	;volatile
  3077  001A4C  0012               	return		;funcret
  3078  001A4E                     __end_of_openLVD:
  3079                           	opt stack 0
  3080                           stkptr	equ	0xFFC
  3081                           tblptru	equ	0xFF8
  3082                           tblptrh	equ	0xFF7
  3083                           tblptrl	equ	0xFF6
  3084                           tablat	equ	0xFF5
  3085                           prodh	equ	0xFF4
  3086                           prodl	equ	0xFF3
  3087                           intcon	equ	0xFF2
  3088                           wreg	equ	0xFE8
  3089                           status	equ	0xFD8
  3090                           
  3091 ;; *************** function _SetDCPWM2 *****************
  3092 ;; Defined at:
  3093 ;;		line 7 in file "C:\Program Files (x86)\Microchip\xc8\v1.34\sources\pic18\plib\PWM\pw2setdc.c"
  3094 ;; Parameters:    Size  Location     Type
  3095 ;;  dutycycle       2   14[COMRAM] unsigned int 
  3096 ;; Auto vars:     Size  Location     Type
  3097 ;;  DCycle          2   18[COMRAM] struct PWMDC
  3098 ;; Return value:  Size  Location     Type
  3099 ;;		None               void
  3100 ;; Registers used:
  3101 ;;		wreg, status,2, status,0
  3102 ;; Tracked objects:
  3103 ;;		On entry : 0/0
  3104 ;;		On exit  : 0/0
  3105 ;;		Unchanged: 0/0
  3106 ;; Data sizes:     COMRAM   BANK0   BANK1   BANK2   BANK3   BANK4   BANK5   BANK6   BANK7   BANK8   BANK9  BANK10  BANK1
      +1  BANK12  BANK13  BANK14  BANK15
  3107 ;;      Params:         2       0       0       0       0       0       0       0       0       0       0       0       
      +0       0       0       0       0
  3108 ;;      Locals:         2       0       0       0       0       0       0       0       0       0       0       0       
      +0       0       0       0       0
  3109 ;;      Temps:          2       0       0       0       0       0       0       0       0       0       0       0       
      +0       0       0       0       0
  3110 ;;      Totals:         6       0       0       0       0       0       0       0       0       0       0       0       
      +0       0       0       0       0
  3111 ;;Total ram usage:        6 bytes
  3112 ;; Hardware stack levels used:    1
  3113 ;; Hardware stack levels required when called:    1
  3114 ;; This function calls:
  3115 ;;		Nothing
  3116 ;; This function is called by:
  3117 ;;		_initialization
  3118 ;;		_set_motor_speed
  3119 ;;		_motors_brake_all
  3120 ;; This function uses a non-reentrant model
  3121 ;;
  3122                           
  3123                           	psect	text31
  3124  0016F6                     __ptext31:
  3125                           	opt stack 0
  3126  0016F6                     _SetDCPWM2:
  3127                           	opt stack 27
  3128                           
  3129                           ;incstack = 0
  3130  0016F6  C00F  F011         	movff	SetDCPWM2@dutycycle,??_SetDCPWM2
  3131  0016FA  C010  F012         	movff	SetDCPWM2@dutycycle+1,??_SetDCPWM2+1
  3132  0016FE  0E06               	movlw	6
  3133  001700                     u855:
  3134  001700  90D8               	bcf	status,0,c
  3135  001702  3611               	rlcf	??_SetDCPWM2,f,c
  3136  001704  3612               	rlcf	??_SetDCPWM2+1,f,c
  3137  001706  2EE8               	decfsz	wreg,f,c
  3138  001708  D7FB               	goto	u855
  3139  00170A  C011  F013         	movff	??_SetDCPWM2,SetDCPWM2@DCycle
  3140  00170E  C012  F014         	movff	??_SetDCPWM2+1,SetDCPWM2@DCycle+1
  3141  001712  C014  FFBB         	movff	SetDCPWM2@DCycle+1,4027	;volatile
  3142  001716  C013  F011         	movff	SetDCPWM2@DCycle,??_SetDCPWM2
  3143  00171A  90D8               	bcf	status,0,c
  3144  00171C  3211               	rrcf	??_SetDCPWM2,f,c
  3145  00171E  90D8               	bcf	status,0,c
  3146  001720  3211               	rrcf	??_SetDCPWM2,f,c
  3147  001722  0E30               	movlw	48
  3148  001724  1611               	andwf	??_SetDCPWM2,f,c
  3149  001726  50BA               	movf	4026,w,c	;volatile
  3150  001728  0BCF               	andlw	207
  3151  00172A  1011               	iorwf	??_SetDCPWM2,w,c
  3152  00172C  6EBA               	movwf	4026,c	;volatile
  3153  00172E  0012               	return		;funcret
  3154  001730                     __end_of_SetDCPWM2:
  3155                           	opt stack 0
  3156                           stkptr	equ	0xFFC
  3157                           tblptru	equ	0xFF8
  3158                           tblptrh	equ	0xFF7
  3159                           tblptrl	equ	0xFF6
  3160                           tablat	equ	0xFF5
  3161                           prodh	equ	0xFF4
  3162                           prodl	equ	0xFF3
  3163                           intcon	equ	0xFF2
  3164                           wreg	equ	0xFE8
  3165                           status	equ	0xFD8
  3166                           
  3167 ;; *************** function _SetDCPWM1 *****************
  3168 ;; Defined at:
  3169 ;;		line 7 in file "C:\Program Files (x86)\Microchip\xc8\v1.34\sources\pic18\plib\PWM\pw1setdc.c"
  3170 ;; Parameters:    Size  Location     Type
  3171 ;;  dutycycle       2   14[COMRAM] unsigned int 
  3172 ;; Auto vars:     Size  Location     Type
  3173 ;;  DCycle          2   18[COMRAM] struct PWMDC
  3174 ;; Return value:  Size  Location     Type
  3175 ;;		None               void
  3176 ;; Registers used:
  3177 ;;		wreg, status,2, status,0
  3178 ;; Tracked objects:
  3179 ;;		On entry : 0/0
  3180 ;;		On exit  : 0/0
  3181 ;;		Unchanged: 0/0
  3182 ;; Data sizes:     COMRAM   BANK0   BANK1   BANK2   BANK3   BANK4   BANK5   BANK6   BANK7   BANK8   BANK9  BANK10  BANK1
      +1  BANK12  BANK13  BANK14  BANK15
  3183 ;;      Params:         2       0       0       0       0       0       0       0       0       0       0       0       
      +0       0       0       0       0
  3184 ;;      Locals:         2       0       0       0       0       0       0       0       0       0       0       0       
      +0       0       0       0       0
  3185 ;;      Temps:          2       0       0       0       0       0       0       0       0       0       0       0       
      +0       0       0       0       0
  3186 ;;      Totals:         6       0       0       0       0       0       0       0       0       0       0       0       
      +0       0       0       0       0
  3187 ;;Total ram usage:        6 bytes
  3188 ;; Hardware stack levels used:    1
  3189 ;; Hardware stack levels required when called:    1
  3190 ;; This function calls:
  3191 ;;		Nothing
  3192 ;; This function is called by:
  3193 ;;		_initialization
  3194 ;;		_set_motor_speed
  3195 ;;		_motors_brake_all
  3196 ;; This function uses a non-reentrant model
  3197 ;;
  3198                           
  3199                           	psect	text32
  3200  001730                     __ptext32:
  3201                           	opt stack 0
  3202  001730                     _SetDCPWM1:
  3203                           	opt stack 27
  3204                           
  3205                           ;incstack = 0
  3206  001730  C00F  F011         	movff	SetDCPWM1@dutycycle,??_SetDCPWM1
  3207  001734  C010  F012         	movff	SetDCPWM1@dutycycle+1,??_SetDCPWM1+1
  3208  001738  0E06               	movlw	6
  3209  00173A                     u845:
  3210  00173A  90D8               	bcf	status,0,c
  3211  00173C  3611               	rlcf	??_SetDCPWM1,f,c
  3212  00173E  3612               	rlcf	??_SetDCPWM1+1,f,c
  3213  001740  2EE8               	decfsz	wreg,f,c
  3214  001742  D7FB               	goto	u845
  3215  001744  C011  F013         	movff	??_SetDCPWM1,SetDCPWM1@DCycle
  3216  001748  C012  F014         	movff	??_SetDCPWM1+1,SetDCPWM1@DCycle+1
  3217  00174C  C014  FFBE         	movff	SetDCPWM1@DCycle+1,4030	;volatile
  3218  001750  C013  F011         	movff	SetDCPWM1@DCycle,??_SetDCPWM1
  3219  001754  90D8               	bcf	status,0,c
  3220  001756  3211               	rrcf	??_SetDCPWM1,f,c
  3221  001758  90D8               	bcf	status,0,c
  3222  00175A  3211               	rrcf	??_SetDCPWM1,f,c
  3223  00175C  0E30               	movlw	48
  3224  00175E  1611               	andwf	??_SetDCPWM1,f,c
  3225  001760  50BD               	movf	4029,w,c	;volatile
  3226  001762  0BCF               	andlw	207
  3227  001764  1011               	iorwf	??_SetDCPWM1,w,c
  3228  001766  6EBD               	movwf	4029,c	;volatile
  3229  001768  0012               	return		;funcret
  3230  00176A                     __end_of_SetDCPWM1:
  3231                           	opt stack 0
  3232                           stkptr	equ	0xFFC
  3233                           tblptru	equ	0xFF8
  3234                           tblptrh	equ	0xFF7
  3235                           tblptrl	equ	0xFF6
  3236                           tablat	equ	0xFF5
  3237                           prodh	equ	0xFF4
  3238                           prodl	equ	0xFF3
  3239                           intcon	equ	0xFF2
  3240                           wreg	equ	0xFE8
  3241                           status	equ	0xFD8
  3242                           
  3243 ;; *************** function _OpenUSART *****************
  3244 ;; Defined at:
  3245 ;;		line 73 in file "C:\Program Files (x86)\Microchip\xc8\v1.34\sources\pic18\plib\USART\uopen.c"
  3246 ;; Parameters:    Size  Location     Type
  3247 ;;  config          1    wreg     unsigned char 
  3248 ;;  spbrg           2   14[COMRAM] unsigned int 
  3249 ;; Auto vars:     Size  Location     Type
  3250 ;;  config          1   16[COMRAM] unsigned char 
  3251 ;; Return value:  Size  Location     Type
  3252 ;;		None               void
  3253 ;; Registers used:
  3254 ;;		wreg, status,2
  3255 ;; Tracked objects:
  3256 ;;		On entry : 0/0
  3257 ;;		On exit  : 0/0
  3258 ;;		Unchanged: 0/0
  3259 ;; Data sizes:     COMRAM   BANK0   BANK1   BANK2   BANK3   BANK4   BANK5   BANK6   BANK7   BANK8   BANK9  BANK10  BANK1
      +1  BANK12  BANK13  BANK14  BANK15
  3260 ;;      Params:         2       0       0       0       0       0       0       0       0       0       0       0       
      +0       0       0       0       0
  3261 ;;      Locals:         1       0       0       0       0       0       0       0       0       0       0       0       
      +0       0       0       0       0
  3262 ;;      Temps:          0       0       0       0       0       0       0       0       0       0       0       0       
      +0       0       0       0       0
  3263 ;;      Totals:         3       0       0       0       0       0       0       0       0       0       0       0       
      +0       0       0       0       0
  3264 ;;Total ram usage:        3 bytes
  3265 ;; Hardware stack levels used:    1
  3266 ;; Hardware stack levels required when called:    1
  3267 ;; This function calls:
  3268 ;;		Nothing
  3269 ;; This function is called by:
  3270 ;;		_initialization
  3271 ;; This function uses a non-reentrant model
  3272 ;;
  3273                           
  3274                           	psect	text33
  3275  00150A                     __ptext33:
  3276                           	opt stack 0
  3277  00150A                     _OpenUSART:
  3278                           	opt stack 28
  3279                           
  3280                           ;incstack = 0
  3281                           ;OpenUSART@config stored from wreg
  3282  00150A  6E11               	movwf	OpenUSART@config,c
  3283  00150C  0E00               	movlw	0
  3284  00150E  6EAC               	movwf	4012,c	;volatile
  3285  001510  0E00               	movlw	0
  3286  001512  6EAB               	movwf	4011,c	;volatile
  3287  001514  A011               	btfss	OpenUSART@config,0,c
  3288  001516  D002               	goto	l1864
  3289  001518  88AC               	bsf	4012,4,c	;volatile
  3290  00151A  D000               	goto	l1864
  3291  00151C                     l1864:
  3292  00151C  A211               	btfss	OpenUSART@config,1,c
  3293  00151E  D003               	goto	l1868
  3294  001520  8CAC               	bsf	4012,6,c	;volatile
  3295  001522  8CAB               	bsf	4011,6,c	;volatile
  3296  001524  D000               	goto	l1868
  3297  001526                     l1868:
  3298  001526  A411               	btfss	OpenUSART@config,2,c
  3299  001528  D002               	goto	l1872
  3300  00152A  8EAC               	bsf	4012,7,c	;volatile
  3301  00152C  D000               	goto	l1872
  3302  00152E                     l1872:
  3303  00152E  A611               	btfss	OpenUSART@config,3,c
  3304  001530  D002               	goto	l480
  3305  001532  88AB               	bsf	4011,4,c	;volatile
  3306  001534  D002               	goto	l1876
  3307  001536                     l480:
  3308  001536  8AAB               	bsf	4011,5,c	;volatile
  3309  001538  D000               	goto	l1876
  3310  00153A                     l1876:
  3311  00153A  B811               	btfsc	OpenUSART@config,4,c
  3312  00153C  84AC               	bsf	4012,2,c	;volatile
  3313  00153E  989E               	bcf	3998,4,c	;volatile
  3314  001540  AA11               	btfss	OpenUSART@config,5,c
  3315  001542  D002               	goto	l1884
  3316  001544  86AB               	bsf	4011,3,c	;volatile
  3317  001546  D000               	goto	l1884
  3318  001548                     l1884:
  3319  001548  AC11               	btfss	OpenUSART@config,6,c
  3320  00154A  D002               	goto	l484
  3321  00154C  8A9D               	bsf	3997,5,c	;volatile
  3322  00154E  D001               	goto	l485
  3323  001550                     l484:
  3324  001550  9A9D               	bcf	3997,5,c	;volatile
  3325  001552                     l485:
  3326  001552  9A9E               	bcf	3998,5,c	;volatile
  3327  001554  AE11               	btfss	OpenUSART@config,7,c
  3328  001556  D002               	goto	l486
  3329  001558  889D               	bsf	3997,4,c	;volatile
  3330  00155A  D001               	goto	l487
  3331  00155C                     l486:
  3332  00155C  989D               	bcf	3997,4,c	;volatile
  3333  00155E                     l487:
  3334  00155E  C00F  FFAF         	movff	OpenUSART@spbrg,4015	;volatile
  3335  001562  5010               	movf	OpenUSART@spbrg+1,w,c
  3336  001564  6EB0               	movwf	4016,c	;volatile
  3337  001566  8AAC               	bsf	4012,5,c	;volatile
  3338  001568  8EAB               	bsf	4011,7,c	;volatile
  3339  00156A  9C94               	bcf	3988,6,c	;volatile
  3340  00156C  8E94               	bsf	3988,7,c	;volatile
  3341  00156E  B8AC               	btfsc	4012,4,c	;volatile
  3342  001570  BEAC               	btfsc	4012,7,c	;volatile
  3343  001572  D002               	goto	l489
  3344  001574  8C94               	bsf	3988,6,c	;volatile
  3345  001576  D000               	goto	l489
  3346  001578                     l489:
  3347  001578  0012               	return		;funcret
  3348  00157A                     __end_of_OpenUSART:
  3349                           	opt stack 0
  3350                           stkptr	equ	0xFFC
  3351                           tblptru	equ	0xFF8
  3352                           tblptrh	equ	0xFF7
  3353                           tblptrl	equ	0xFF6
  3354                           tablat	equ	0xFF5
  3355                           prodh	equ	0xFF4
  3356                           prodl	equ	0xFF3
  3357                           intcon	equ	0xFF2
  3358                           wreg	equ	0xFE8
  3359                           status	equ	0xFD8
  3360                           
  3361 ;; *************** function _OpenTimer2 *****************
  3362 ;; Defined at:
  3363 ;;		line 17 in file "C:\Program Files (x86)\Microchip\xc8\v1.34\sources\pic18\plib\Timers\t2open.c"
  3364 ;; Parameters:    Size  Location     Type
  3365 ;;  config          1    wreg     unsigned char 
  3366 ;; Auto vars:     Size  Location     Type
  3367 ;;  config          1   14[COMRAM] unsigned char 
  3368 ;; Return value:  Size  Location     Type
  3369 ;;		None               void
  3370 ;; Registers used:
  3371 ;;		wreg, status,2, status,0
  3372 ;; Tracked objects:
  3373 ;;		On entry : 0/0
  3374 ;;		On exit  : 0/0
  3375 ;;		Unchanged: 0/0
  3376 ;; Data sizes:     COMRAM   BANK0   BANK1   BANK2   BANK3   BANK4   BANK5   BANK6   BANK7   BANK8   BANK9  BANK10  BANK1
      +1  BANK12  BANK13  BANK14  BANK15
  3377 ;;      Params:         0       0       0       0       0       0       0       0       0       0       0       0       
      +0       0       0       0       0
  3378 ;;      Locals:         1       0       0       0       0       0       0       0       0       0       0       0       
      +0       0       0       0       0
  3379 ;;      Temps:          0       0       0       0       0       0       0       0       0       0       0       0       
      +0       0       0       0       0
  3380 ;;      Totals:         1       0       0       0       0       0       0       0       0       0       0       0       
      +0       0       0       0       0
  3381 ;;Total ram usage:        1 bytes
  3382 ;; Hardware stack levels used:    1
  3383 ;; Hardware stack levels required when called:    1
  3384 ;; This function calls:
  3385 ;;		Nothing
  3386 ;; This function is called by:
  3387 ;;		_initialization
  3388 ;; This function uses a non-reentrant model
  3389 ;;
  3390                           
  3391                           	psect	text34
  3392  001A1A                     __ptext34:
  3393                           	opt stack 0
  3394  001A1A                     _OpenTimer2:
  3395                           	opt stack 28
  3396                           
  3397                           ;incstack = 0
  3398                           ;OpenTimer2@config stored from wreg
  3399  001A1A  6E0F               	movwf	OpenTimer2@config,c
  3400  001A1C  500F               	movf	OpenTimer2@config,w,c
  3401  001A1E  0BFB               	andlw	251
  3402  001A20  6ECA               	movwf	4042,c	;volatile
  3403  001A22  0E00               	movlw	0
  3404  001A24  6ECC               	movwf	4044,c	;volatile
  3405  001A26  929E               	bcf	3998,1,c	;volatile
  3406  001A28  AE0F               	btfss	OpenTimer2@config,7,c
  3407  001A2A  D002               	goto	l454
  3408  001A2C  829D               	bsf	3997,1,c	;volatile
  3409  001A2E  D001               	goto	l455
  3410  001A30                     l454:
  3411  001A30  929D               	bcf	3997,1,c	;volatile
  3412  001A32                     l455:
  3413  001A32  84CA               	bsf	4042,2,c	;volatile
  3414  001A34  0012               	return		;funcret
  3415  001A36                     __end_of_OpenTimer2:
  3416                           	opt stack 0
  3417                           stkptr	equ	0xFFC
  3418                           tblptru	equ	0xFF8
  3419                           tblptrh	equ	0xFF7
  3420                           tblptrl	equ	0xFF6
  3421                           tablat	equ	0xFF5
  3422                           prodh	equ	0xFF4
  3423                           prodl	equ	0xFF3
  3424                           intcon	equ	0xFF2
  3425                           wreg	equ	0xFE8
  3426                           status	equ	0xFD8
  3427                           
  3428 ;; *************** function _OpenPWM2 *****************
  3429 ;; Defined at:
  3430 ;;		line 18 in file "C:\Program Files (x86)\Microchip\xc8\v1.34\sources\pic18\plib\PWM\pw2open.c"
  3431 ;; Parameters:    Size  Location     Type
  3432 ;;  period          1    wreg     unsigned char 
  3433 ;; Auto vars:     Size  Location     Type
  3434 ;;  period          1   14[COMRAM] unsigned char 
  3435 ;;  ccp2mx          1   15[COMRAM] unsigned char 
  3436 ;;  pmmode          1    0        unsigned char 
  3437 ;; Return value:  Size  Location     Type
  3438 ;;		None               void
  3439 ;; Registers used:
  3440 ;;		wreg, status,2, tblptrl, tblptrh, tblptru
  3441 ;; Tracked objects:
  3442 ;;		On entry : 0/0
  3443 ;;		On exit  : 0/0
  3444 ;;		Unchanged: 0/0
  3445 ;; Data sizes:     COMRAM   BANK0   BANK1   BANK2   BANK3   BANK4   BANK5   BANK6   BANK7   BANK8   BANK9  BANK10  BANK1
      +1  BANK12  BANK13  BANK14  BANK15
  3446 ;;      Params:         0       0       0       0       0       0       0       0       0       0       0       0       
      +0       0       0       0       0
  3447 ;;      Locals:         2       0       0       0       0       0       0       0       0       0       0       0       
      +0       0       0       0       0
  3448 ;;      Temps:          0       0       0       0       0       0       0       0       0       0       0       0       
      +0       0       0       0       0
  3449 ;;      Totals:         2       0       0       0       0       0       0       0       0       0       0       0       
      +0       0       0       0       0
  3450 ;;Total ram usage:        2 bytes
  3451 ;; Hardware stack levels used:    1
  3452 ;; Hardware stack levels required when called:    1
  3453 ;; This function calls:
  3454 ;;		Nothing
  3455 ;; This function is called by:
  3456 ;;		_initialization
  3457 ;; This function uses a non-reentrant model
  3458 ;;
  3459                           
  3460                           	psect	text35
  3461  00176A                     __ptext35:
  3462                           	opt stack 0
  3463  00176A                     _OpenPWM2:
  3464                           	opt stack 28
  3465                           
  3466                           ;incstack = 0
  3467                           ;OpenPWM2@period stored from wreg
  3468  00176A  6E0F               	movwf	OpenPWM2@period,c
  3469  00176C  0E0C               	movlw	12
  3470  00176E  6EBA               	movwf	4026,c	;volatile
  3471  001770  0E05               	movlw	5
  3472  001772  6EF6               	movwf	tblptrl,c
  3473  001774                     	if	1	;There is more than 1 active tblptr byte
  3474  001774  0E00               	movlw	0
  3475  001776  6EF7               	movwf	tblptrh,c
  3476  001778                     	endif
  3477  001778                     	if	1	;There are 3 active tblptr bytes
  3478  001778  0E30               	movlw	48
  3479  00177A  6EF8               	movwf	tblptru,c
  3480  00177C                     	endif
  3481  00177C  0008               	tblrd		*
  3482  00177E  0100               	movlb	12288	; () banked
  3483  001780  A0F5               	btfss	tablat,0,c
  3484  001782  D002               	goto	l1498
  3485                           
  3486                           ; BSR set to: 0
  3487  001784  6810               	setf	OpenPWM2@ccp2mx,c
  3488  001786  D002               	goto	l431
  3489  001788                     l1498:
  3490                           
  3491                           ; BSR set to: 0
  3492  001788  0E00               	movlw	0
  3493  00178A  6E10               	movwf	OpenPWM2@ccp2mx,c
  3494  00178C                     l431:
  3495                           
  3496                           ; BSR set to: 0
  3497  00178C  5010               	movf	OpenPWM2@ccp2mx,w,c
  3498  00178E  B4D8               	btfsc	status,2,c
  3499  001790  D002               	goto	l432
  3500                           
  3501                           ; BSR set to: 0
  3502  001792  9294               	bcf	3988,1,c	;volatile
  3503  001794  D001               	goto	l433
  3504  001796                     l432:
  3505                           
  3506                           ; BSR set to: 0
  3507  001796  9693               	bcf	3987,3,c	;volatile
  3508  001798                     l433:
  3509                           
  3510                           ; BSR set to: 0
  3511  001798  94CA               	bcf	4042,2,c	;volatile
  3512  00179A  C00F  FFCB         	movff	OpenPWM2@period,4043	;volatile
  3513  00179E  84CA               	bsf	4042,2,c	;volatile
  3514                           
  3515                           ; BSR set to: 0
  3516  0017A0  0012               	return		;funcret
  3517  0017A2                     __end_of_OpenPWM2:
  3518                           	opt stack 0
  3519                           stkptr	equ	0xFFC
  3520                           tblptru	equ	0xFF8
  3521                           tblptrh	equ	0xFF7
  3522                           tblptrl	equ	0xFF6
  3523                           tablat	equ	0xFF5
  3524                           prodh	equ	0xFF4
  3525                           prodl	equ	0xFF3
  3526                           intcon	equ	0xFF2
  3527                           wreg	equ	0xFE8
  3528                           status	equ	0xFD8
  3529                           
  3530 ;; *************** function _OpenPWM1 *****************
  3531 ;; Defined at:
  3532 ;;		line 8 in file "C:\Program Files (x86)\Microchip\xc8\v1.34\sources\pic18\plib\PWM\pw1open.c"
  3533 ;; Parameters:    Size  Location     Type
  3534 ;;  period          1    wreg     unsigned char 
  3535 ;; Auto vars:     Size  Location     Type
  3536 ;;  period          1   14[COMRAM] unsigned char 
  3537 ;; Return value:  Size  Location     Type
  3538 ;;		None               void
  3539 ;; Registers used:
  3540 ;;		wreg, status,2, status,0
  3541 ;; Tracked objects:
  3542 ;;		On entry : 0/0
  3543 ;;		On exit  : 0/0
  3544 ;;		Unchanged: 0/0
  3545 ;; Data sizes:     COMRAM   BANK0   BANK1   BANK2   BANK3   BANK4   BANK5   BANK6   BANK7   BANK8   BANK9  BANK10  BANK1
      +1  BANK12  BANK13  BANK14  BANK15
  3546 ;;      Params:         0       0       0       0       0       0       0       0       0       0       0       0       
      +0       0       0       0       0
  3547 ;;      Locals:         1       0       0       0       0       0       0       0       0       0       0       0       
      +0       0       0       0       0
  3548 ;;      Temps:          0       0       0       0       0       0       0       0       0       0       0       0       
      +0       0       0       0       0
  3549 ;;      Totals:         1       0       0       0       0       0       0       0       0       0       0       0       
      +0       0       0       0       0
  3550 ;;Total ram usage:        1 bytes
  3551 ;; Hardware stack levels used:    1
  3552 ;; Hardware stack levels required when called:    1
  3553 ;; This function calls:
  3554 ;;		Nothing
  3555 ;; This function is called by:
  3556 ;;		_initialization
  3557 ;; This function uses a non-reentrant model
  3558 ;;
  3559                           
  3560                           	psect	text36
  3561  001A7A                     __ptext36:
  3562                           	opt stack 0
  3563  001A7A                     _OpenPWM1:
  3564                           	opt stack 28
  3565                           
  3566                           ; BSR set to: 0
  3567                           ;incstack = 0
  3568                           ;OpenPWM1@period stored from wreg
  3569  001A7A  6E0F               	movwf	OpenPWM1@period,c
  3570  001A7C  0E0C               	movlw	12
  3571  001A7E  12BD               	iorwf	4029,f,c	;volatile
  3572  001A80  9494               	bcf	3988,2,c	;volatile
  3573  001A82  94CA               	bcf	4042,2,c	;volatile
  3574  001A84  C00F  FFCB         	movff	OpenPWM1@period,4043	;volatile
  3575  001A88  84CA               	bsf	4042,2,c	;volatile
  3576  001A8A  0012               	return		;funcret
  3577  001A8C                     __end_of_OpenPWM1:
  3578                           	opt stack 0
  3579                           stkptr	equ	0xFFC
  3580                           tblptru	equ	0xFF8
  3581                           tblptrh	equ	0xFF7
  3582                           tblptrl	equ	0xFF6
  3583                           tablat	equ	0xFF5
  3584                           prodh	equ	0xFF4
  3585                           prodl	equ	0xFF3
  3586                           intcon	equ	0xFF2
  3587                           wreg	equ	0xFE8
  3588                           status	equ	0xFD8
  3589                           
  3590 ;; *************** function _OpenADC *****************
  3591 ;; Defined at:
  3592 ;;		line 68 in file "C:\Program Files (x86)\Microchip\xc8\v1.34\sources\pic18\plib\ADC\adcopen.c"
  3593 ;; Parameters:    Size  Location     Type
  3594 ;;  config          1    wreg     unsigned char 
  3595 ;;  config2         1   14[COMRAM] unsigned char 
  3596 ;;  portconfig      1   15[COMRAM] unsigned char 
  3597 ;; Auto vars:     Size  Location     Type
  3598 ;;  config          1   18[COMRAM] unsigned char 
  3599 ;; Return value:  Size  Location     Type
  3600 ;;		None               void
  3601 ;; Registers used:
  3602 ;;		wreg, status,2, status,0
  3603 ;; Tracked objects:
  3604 ;;		On entry : 0/0
  3605 ;;		On exit  : 0/0
  3606 ;;		Unchanged: 0/0
  3607 ;; Data sizes:     COMRAM   BANK0   BANK1   BANK2   BANK3   BANK4   BANK5   BANK6   BANK7   BANK8   BANK9  BANK10  BANK1
      +1  BANK12  BANK13  BANK14  BANK15
  3608 ;;      Params:         2       0       0       0       0       0       0       0       0       0       0       0       
      +0       0       0       0       0
  3609 ;;      Locals:         1       0       0       0       0       0       0       0       0       0       0       0       
      +0       0       0       0       0
  3610 ;;      Temps:          2       0       0       0       0       0       0       0       0       0       0       0       
      +0       0       0       0       0
  3611 ;;      Totals:         5       0       0       0       0       0       0       0       0       0       0       0       
      +0       0       0       0       0
  3612 ;;Total ram usage:        5 bytes
  3613 ;; Hardware stack levels used:    1
  3614 ;; Hardware stack levels required when called:    1
  3615 ;; This function calls:
  3616 ;;		Nothing
  3617 ;; This function is called by:
  3618 ;;		_initialization
  3619 ;; This function uses a non-reentrant model
  3620 ;;
  3621                           
  3622                           	psect	text37
  3623  0015DC                     __ptext37:
  3624                           	opt stack 0
  3625  0015DC                     _OpenADC:
  3626                           	opt stack 28
  3627                           
  3628                           ;incstack = 0
  3629                           ;OpenADC@config stored from wreg
  3630  0015DC  6E13               	movwf	OpenADC@config,c
  3631  0015DE  0E00               	movlw	0
  3632  0015E0  6EC2               	movwf	4034,c	;volatile
  3633  0015E2  0E00               	movlw	0
  3634  0015E4  6EC0               	movwf	4032,c	;volatile
  3635  0015E6  90D8               	bcf	status,0,c
  3636  0015E8  300F               	rrcf	OpenADC@config2,w,c
  3637  0015EA  0B3C               	andlw	60
  3638  0015EC  6EC2               	movwf	4034,c	;volatile
  3639  0015EE  C00F  F011         	movff	OpenADC@config2,??_OpenADC
  3640  0015F2  3A11               	swapf	??_OpenADC,f,c
  3641  0015F4  0EF0               	movlw	240
  3642  0015F6  1611               	andwf	??_OpenADC,f,c
  3643  0015F8  0E30               	movlw	48
  3644  0015FA  1611               	andwf	??_OpenADC,f,c
  3645  0015FC  5010               	movf	OpenADC@portconfig,w,c
  3646  0015FE  0B0F               	andlw	15
  3647  001600  1011               	iorwf	??_OpenADC,w,c
  3648  001602  6EC1               	movwf	4033,c	;volatile
  3649  001604  C013  F011         	movff	OpenADC@config,??_OpenADC
  3650  001608  90D8               	bcf	status,0,c
  3651  00160A  3611               	rlcf	??_OpenADC,f,c
  3652  00160C  90D8               	bcf	status,0,c
  3653  00160E  3611               	rlcf	??_OpenADC,f,c
  3654  001610  0E38               	movlw	56
  3655  001612  1611               	andwf	??_OpenADC,f,c
  3656  001614  C013  F012         	movff	OpenADC@config,??_OpenADC+1
  3657  001618  3A12               	swapf	??_OpenADC+1,f,c
  3658  00161A  0E0F               	movlw	15
  3659  00161C  1612               	andwf	??_OpenADC+1,f,c
  3660  00161E  0E07               	movlw	7
  3661  001620  1612               	andwf	??_OpenADC+1,f,c
  3662  001622  5013               	movf	OpenADC@config,w,c
  3663  001624  0B80               	andlw	128
  3664  001626  1012               	iorwf	??_OpenADC+1,w,c
  3665  001628  1011               	iorwf	??_OpenADC,w,c
  3666  00162A  6EC0               	movwf	4032,c	;volatile
  3667  00162C  AE0F               	btfss	OpenADC@config2,7,c
  3668  00162E  D003               	goto	l383
  3669  001630  9C9E               	bcf	3998,6,c	;volatile
  3670  001632  8C9D               	bsf	3997,6,c	;volatile
  3671  001634  8CF2               	bsf	intcon,6,c	;volatile
  3672  001636                     l383:
  3673  001636  80C2               	bsf	4034,0,c	;volatile
  3674  001638  0012               	return		;funcret
  3675  00163A                     __end_of_OpenADC:
  3676                           	opt stack 0
  3677                           stkptr	equ	0xFFC
  3678                           tblptru	equ	0xFF8
  3679                           tblptrh	equ	0xFF7
  3680                           tblptrl	equ	0xFF6
  3681                           tablat	equ	0xFF5
  3682                           prodh	equ	0xFF4
  3683                           prodl	equ	0xFF3
  3684                           intcon	equ	0xFF2
  3685                           wreg	equ	0xFE8
  3686                           status	equ	0xFD8
  3687                           
  3688 ;; *************** function _check_sensors *****************
  3689 ;; Defined at:
  3690 ;;		line 241 in file "sumovore.c"
  3691 ;; Parameters:    Size  Location     Type
  3692 ;;		None
  3693 ;; Auto vars:     Size  Location     Type
  3694 ;;		None
  3695 ;; Return value:  Size  Location     Type
  3696 ;;		None               void
  3697 ;; Registers used:
  3698 ;;		wreg, status,2, status,0, cstack
  3699 ;; Tracked objects:
  3700 ;;		On entry : 0/0
  3701 ;;		On exit  : 0/0
  3702 ;;		Unchanged: 0/0
  3703 ;; Data sizes:     COMRAM   BANK0   BANK1   BANK2   BANK3   BANK4   BANK5   BANK6   BANK7   BANK8   BANK9  BANK10  BANK1
      +1  BANK12  BANK13  BANK14  BANK15
  3704 ;;      Params:         0       0       0       0       0       0       0       0       0       0       0       0       
      +0       0       0       0       0
  3705 ;;      Locals:         0       0       0       0       0       0       0       0       0       0       0       0       
      +0       0       0       0       0
  3706 ;;      Temps:          1       0       0       0       0       0       0       0       0       0       0       0       
      +0       0       0       0       0
  3707 ;;      Totals:         1       0       0       0       0       0       0       0       0       0       0       0       
      +0       0       0       0       0
  3708 ;;Total ram usage:        1 bytes
  3709 ;; Hardware stack levels used:    1
  3710 ;; Hardware stack levels required when called:    3
  3711 ;; This function calls:
  3712 ;;		_adc
  3713 ;; This function is called by:
  3714 ;;		_main
  3715 ;; This function uses a non-reentrant model
  3716 ;;
  3717                           
  3718                           	psect	text38
  3719  00114E                     __ptext38:
  3720                           	opt stack 0
  3721  00114E                     _check_sensors:
  3722                           	opt stack 27
  3723                           
  3724                           ;sumovore.c: 243: SeeLine.b.Left = ( adc(0b10000111) > threshold );
  3725                           
  3726                           ;incstack = 0
  3727  00114E  0E87               	movlw	135
  3728  001150  EC18  F00C         	call	_adc
  3729  001154  5013               	movf	?_adc,w,c
  3730  001156  5C1D               	subwf	_threshold,w,c
  3731  001158  5014               	movf	?_adc+1,w,c
  3732  00115A  581E               	subwfb	_threshold+1,w,c
  3733  00115C  B0D8               	btfsc	status,0,c
  3734  00115E  D003               	goto	u1200
  3735  001160  6A16               	clrf	??_check_sensors& (0+255),c
  3736  001162  2A16               	incf	??_check_sensors& (0+255),f,c
  3737  001164  D001               	goto	u1218
  3738  001166                     u1200:
  3739  001166  6A16               	clrf	??_check_sensors& (0+255),c
  3740  001168                     u1218:
  3741  001168  3A16               	swapf	??_check_sensors,f,c
  3742  00116A  501F               	movf	_SeeLine,w,c
  3743  00116C  1816               	xorwf	??_check_sensors,w,c
  3744  00116E  0BEF               	andlw	-17
  3745  001170  1816               	xorwf	??_check_sensors,w,c
  3746  001172  6E1F               	movwf	_SeeLine,c
  3747                           
  3748                           ;sumovore.c: 244: SeeLine.b.CntLeft = ( adc(0b10001111) > threshold );
  3749  001174  0E8F               	movlw	143
  3750  001176  EC18  F00C         	call	_adc
  3751  00117A  5013               	movf	?_adc,w,c
  3752  00117C  5C1D               	subwf	_threshold,w,c
  3753  00117E  5014               	movf	?_adc+1,w,c
  3754  001180  581E               	subwfb	_threshold+1,w,c
  3755  001182  B0D8               	btfsc	status,0,c
  3756  001184  D003               	goto	u1220
  3757  001186  6A16               	clrf	??_check_sensors& (0+255),c
  3758  001188  2A16               	incf	??_check_sensors& (0+255),f,c
  3759  00118A  D001               	goto	u1238
  3760  00118C                     u1220:
  3761  00118C  6A16               	clrf	??_check_sensors& (0+255),c
  3762  00118E                     u1238:
  3763  00118E  4616               	rlncf	??_check_sensors,f,c
  3764  001190  4616               	rlncf	??_check_sensors,f,c
  3765  001192  4616               	rlncf	??_check_sensors,f,c
  3766  001194  501F               	movf	_SeeLine,w,c
  3767  001196  1816               	xorwf	??_check_sensors,w,c
  3768  001198  0BF7               	andlw	-9
  3769  00119A  1816               	xorwf	??_check_sensors,w,c
  3770  00119C  6E1F               	movwf	_SeeLine,c
  3771                           
  3772                           ;sumovore.c: 245: SeeLine.b.Center = ( adc(0b10010111) > threshold );
  3773  00119E  0E97               	movlw	151
  3774  0011A0  EC18  F00C         	call	_adc
  3775  0011A4  5013               	movf	?_adc,w,c
  3776  0011A6  5C1D               	subwf	_threshold,w,c
  3777  0011A8  5014               	movf	?_adc+1,w,c
  3778  0011AA  581E               	subwfb	_threshold+1,w,c
  3779  0011AC  B0D8               	btfsc	status,0,c
  3780  0011AE  D003               	goto	u1240
  3781  0011B0  6A16               	clrf	??_check_sensors& (0+255),c
  3782  0011B2  2A16               	incf	??_check_sensors& (0+255),f,c
  3783  0011B4  D001               	goto	u1258
  3784  0011B6                     u1240:
  3785  0011B6  6A16               	clrf	??_check_sensors& (0+255),c
  3786  0011B8                     u1258:
  3787  0011B8  4616               	rlncf	??_check_sensors,f,c
  3788  0011BA  4616               	rlncf	??_check_sensors,f,c
  3789  0011BC  501F               	movf	_SeeLine,w,c
  3790  0011BE  1816               	xorwf	??_check_sensors,w,c
  3791  0011C0  0BFB               	andlw	-5
  3792  0011C2  1816               	xorwf	??_check_sensors,w,c
  3793  0011C4  6E1F               	movwf	_SeeLine,c
  3794                           
  3795                           ;sumovore.c: 246: SeeLine.b.CntRight = ( adc(0b10011111) > threshold );
  3796  0011C6  0E9F               	movlw	159
  3797  0011C8  EC18  F00C         	call	_adc
  3798  0011CC  5013               	movf	?_adc,w,c
  3799  0011CE  5C1D               	subwf	_threshold,w,c
  3800  0011D0  5014               	movf	?_adc+1,w,c
  3801  0011D2  581E               	subwfb	_threshold+1,w,c
  3802  0011D4  B0D8               	btfsc	status,0,c
  3803  0011D6  D003               	goto	u1260
  3804  0011D8  6A16               	clrf	??_check_sensors& (0+255),c
  3805  0011DA  2A16               	incf	??_check_sensors& (0+255),f,c
  3806  0011DC  D001               	goto	u1278
  3807  0011DE                     u1260:
  3808  0011DE  6A16               	clrf	??_check_sensors& (0+255),c
  3809  0011E0                     u1278:
  3810  0011E0  4616               	rlncf	??_check_sensors,f,c
  3811  0011E2  501F               	movf	_SeeLine,w,c
  3812  0011E4  1816               	xorwf	??_check_sensors,w,c
  3813  0011E6  0BFD               	andlw	-3
  3814  0011E8  1816               	xorwf	??_check_sensors,w,c
  3815  0011EA  6E1F               	movwf	_SeeLine,c
  3816                           
  3817                           ;sumovore.c: 247: SeeLine.b.Right = ( adc(0b10100111) > threshold );
  3818  0011EC  0EA7               	movlw	167
  3819  0011EE  EC18  F00C         	call	_adc
  3820  0011F2  5013               	movf	?_adc,w,c
  3821  0011F4  5C1D               	subwf	_threshold,w,c
  3822  0011F6  5014               	movf	?_adc+1,w,c
  3823  0011F8  581E               	subwfb	_threshold+1,w,c
  3824  0011FA  B0D8               	btfsc	status,0,c
  3825  0011FC  D003               	goto	u1280
  3826  0011FE  6A16               	clrf	??_check_sensors& (0+255),c
  3827  001200  2A16               	incf	??_check_sensors& (0+255),f,c
  3828  001202  D001               	goto	u1298
  3829  001204                     u1280:
  3830  001204  6A16               	clrf	??_check_sensors& (0+255),c
  3831  001206                     u1298:
  3832  001206  501F               	movf	_SeeLine,w,c
  3833  001208  1816               	xorwf	??_check_sensors,w,c
  3834  00120A  0BFE               	andlw	-2
  3835  00120C  1816               	xorwf	??_check_sensors,w,c
  3836  00120E  6E1F               	movwf	_SeeLine,c
  3837  001210  0012               	return		;funcret
  3838  001212                     __end_of_check_sensors:
  3839                           	opt stack 0
  3840                           stkptr	equ	0xFFC
  3841                           tblptru	equ	0xFF8
  3842                           tblptrh	equ	0xFF7
  3843                           tblptrl	equ	0xFF6
  3844                           tablat	equ	0xFF5
  3845                           prodh	equ	0xFF4
  3846                           prodl	equ	0xFF3
  3847                           intcon	equ	0xFF2
  3848                           wreg	equ	0xFE8
  3849                           status	equ	0xFD8
  3850                           
  3851 ;; *************** function _adc *****************
  3852 ;; Defined at:
  3853 ;;		line 229 in file "sumovore.c"
  3854 ;; Parameters:    Size  Location     Type
  3855 ;;  channel         1    wreg     unsigned char 
  3856 ;; Auto vars:     Size  Location     Type
  3857 ;;  channel         1   20[COMRAM] unsigned char 
  3858 ;; Return value:  Size  Location     Type
  3859 ;;                  2   18[COMRAM] unsigned int 
  3860 ;; Registers used:
  3861 ;;		wreg, status,2, status,0, cstack
  3862 ;; Tracked objects:
  3863 ;;		On entry : 0/0
  3864 ;;		On exit  : 0/0
  3865 ;;		Unchanged: 0/0
  3866 ;; Data sizes:     COMRAM   BANK0   BANK1   BANK2   BANK3   BANK4   BANK5   BANK6   BANK7   BANK8   BANK9  BANK10  BANK1
      +1  BANK12  BANK13  BANK14  BANK15
  3867 ;;      Params:         2       0       0       0       0       0       0       0       0       0       0       0       
      +0       0       0       0       0
  3868 ;;      Locals:         1       0       0       0       0       0       0       0       0       0       0       0       
      +0       0       0       0       0
  3869 ;;      Temps:          0       0       0       0       0       0       0       0       0       0       0       0       
      +0       0       0       0       0
  3870 ;;      Totals:         3       0       0       0       0       0       0       0       0       0       0       0       
      +0       0       0       0       0
  3871 ;;Total ram usage:        3 bytes
  3872 ;; Hardware stack levels used:    1
  3873 ;; Hardware stack levels required when called:    2
  3874 ;; This function calls:
  3875 ;;		_BusyADC
  3876 ;;		_ConvertADC
  3877 ;;		_ReadADC
  3878 ;;		_SetChanADC
  3879 ;; This function is called by:
  3880 ;;		_check_sensors
  3881 ;; This function uses a non-reentrant model
  3882 ;;
  3883                           
  3884                           	psect	text39
  3885  001830                     __ptext39:
  3886                           	opt stack 0
  3887  001830                     _adc:
  3888                           	opt stack 27
  3889                           
  3890                           ;incstack = 0
  3891                           ;adc@channel stored from wreg
  3892  001830  6E15               	movwf	adc@channel,c
  3893                           
  3894                           ;sumovore.c: 231: SetChanADC( channel );
  3895  001832  5015               	movf	adc@channel,w,c
  3896  001834  EC32  F00D         	call	_SetChanADC
  3897                           
  3898                           ;sumovore.c: 232: ConvertADC();
  3899  001838  EC78  F00D         	call	_ConvertADC	;wreg free
  3900                           
  3901                           ;sumovore.c: 233: while( BusyADC() );
  3902  00183C  D000               	goto	l1950
  3903  00183E                     l1950:
  3904  00183E  EC5C  F00D         	call	_BusyADC	;wreg free
  3905  001842  0900               	iorlw	0
  3906  001844  A4D8               	btfss	status,2,c
  3907  001846  D7FB               	goto	l1950
  3908                           
  3909                           ;sumovore.c: 235: return ReadADC();
  3910  001848  EC46  F00D         	call	_ReadADC	;wreg free
  3911  00184C  C00F  F013         	movff	?_ReadADC,?_adc
  3912  001850  C010  F014         	movff	?_ReadADC+1,?_adc+1
  3913  001854  D000               	goto	l188
  3914  001856                     l188:
  3915  001856  0012               	return		;funcret
  3916  001858                     __end_of_adc:
  3917                           	opt stack 0
  3918                           stkptr	equ	0xFFC
  3919                           tblptru	equ	0xFF8
  3920                           tblptrh	equ	0xFF7
  3921                           tblptrl	equ	0xFF6
  3922                           tablat	equ	0xFF5
  3923                           prodh	equ	0xFF4
  3924                           prodl	equ	0xFF3
  3925                           intcon	equ	0xFF2
  3926                           wreg	equ	0xFE8
  3927                           status	equ	0xFD8
  3928                           
  3929 ;; *************** function _SetChanADC *****************
  3930 ;; Defined at:
  3931 ;;		line 30 in file "C:\Program Files (x86)\Microchip\xc8\v1.34\sources\pic18\plib\ADC\adcsetch.c"
  3932 ;; Parameters:    Size  Location     Type
  3933 ;;  channel         1    wreg     unsigned char 
  3934 ;; Auto vars:     Size  Location     Type
  3935 ;;  channel         1   15[COMRAM] unsigned char 
  3936 ;; Return value:  Size  Location     Type
  3937 ;;		None               void
  3938 ;; Registers used:
  3939 ;;		wreg, status,2, status,0
  3940 ;; Tracked objects:
  3941 ;;		On entry : 0/0
  3942 ;;		On exit  : 0/0
  3943 ;;		Unchanged: 0/0
  3944 ;; Data sizes:     COMRAM   BANK0   BANK1   BANK2   BANK3   BANK4   BANK5   BANK6   BANK7   BANK8   BANK9  BANK10  BANK1
      +1  BANK12  BANK13  BANK14  BANK15
  3945 ;;      Params:         0       0       0       0       0       0       0       0       0       0       0       0       
      +0       0       0       0       0
  3946 ;;      Locals:         1       0       0       0       0       0       0       0       0       0       0       0       
      +0       0       0       0       0
  3947 ;;      Temps:          1       0       0       0       0       0       0       0       0       0       0       0       
      +0       0       0       0       0
  3948 ;;      Totals:         2       0       0       0       0       0       0       0       0       0       0       0       
      +0       0       0       0       0
  3949 ;;Total ram usage:        2 bytes
  3950 ;; Hardware stack levels used:    1
  3951 ;; Hardware stack levels required when called:    1
  3952 ;; This function calls:
  3953 ;;		Nothing
  3954 ;; This function is called by:
  3955 ;;		_adc
  3956 ;; This function uses a non-reentrant model
  3957 ;;
  3958                           
  3959                           	psect	text40
  3960  001A64                     __ptext40:
  3961                           	opt stack 0
  3962  001A64                     _SetChanADC:
  3963                           	opt stack 27
  3964                           
  3965                           ;incstack = 0
  3966                           ;SetChanADC@channel stored from wreg
  3967  001A64  6E10               	movwf	SetChanADC@channel,c
  3968  001A66  CFC2 F00F          	movff	4034,??_SetChanADC	;volatile
  3969  001A6A  0EC3               	movlw	195
  3970  001A6C  160F               	andwf	??_SetChanADC,f,c
  3971  001A6E  90D8               	bcf	status,0,c
  3972  001A70  3010               	rrcf	SetChanADC@channel,w,c
  3973  001A72  0B3C               	andlw	60
  3974  001A74  100F               	iorwf	??_SetChanADC,w,c
  3975  001A76  6EC2               	movwf	4034,c	;volatile
  3976  001A78  0012               	return		;funcret
  3977  001A7A                     __end_of_SetChanADC:
  3978                           	opt stack 0
  3979                           stkptr	equ	0xFFC
  3980                           tblptru	equ	0xFF8
  3981                           tblptrh	equ	0xFF7
  3982                           tblptrl	equ	0xFF6
  3983                           tablat	equ	0xFF5
  3984                           prodh	equ	0xFF4
  3985                           prodl	equ	0xFF3
  3986                           intcon	equ	0xFF2
  3987                           wreg	equ	0xFE8
  3988                           status	equ	0xFD8
  3989                           
  3990 ;; *************** function _ReadADC *****************
  3991 ;; Defined at:
  3992 ;;		line 24 in file "C:\Program Files (x86)\Microchip\xc8\v1.34\sources\pic18\plib\ADC\adcread.c"
  3993 ;; Parameters:    Size  Location     Type
  3994 ;;		None
  3995 ;; Auto vars:     Size  Location     Type
  3996 ;;		None
  3997 ;; Return value:  Size  Location     Type
  3998 ;;                  2   14[COMRAM] int 
  3999 ;; Registers used:
  4000 ;;		wreg, status,2
  4001 ;; Tracked objects:
  4002 ;;		On entry : 0/0
  4003 ;;		On exit  : 0/0
  4004 ;;		Unchanged: 0/0
  4005 ;; Data sizes:     COMRAM   BANK0   BANK1   BANK2   BANK3   BANK4   BANK5   BANK6   BANK7   BANK8   BANK9  BANK10  BANK1
      +1  BANK12  BANK13  BANK14  BANK15
  4006 ;;      Params:         2       0       0       0       0       0       0       0       0       0       0       0       
      +0       0       0       0       0
  4007 ;;      Locals:         0       0       0       0       0       0       0       0       0       0       0       0       
      +0       0       0       0       0
  4008 ;;      Temps:          2       0       0       0       0       0       0       0       0       0       0       0       
      +0       0       0       0       0
  4009 ;;      Totals:         4       0       0       0       0       0       0       0       0       0       0       0       
      +0       0       0       0       0
  4010 ;;Total ram usage:        4 bytes
  4011 ;; Hardware stack levels used:    1
  4012 ;; Hardware stack levels required when called:    1
  4013 ;; This function calls:
  4014 ;;		Nothing
  4015 ;; This function is called by:
  4016 ;;		_adc
  4017 ;; This function uses a non-reentrant model
  4018 ;;
  4019                           
  4020                           	psect	text41
  4021  001A8C                     __ptext41:
  4022                           	opt stack 0
  4023  001A8C                     _ReadADC:
  4024                           	opt stack 27
  4025                           
  4026                           ;incstack = 0
  4027  001A8C  50C4               	movf	4036,w,c	;volatile
  4028  001A8E  6E11               	movwf	??_ReadADC& (0+255),c
  4029  001A90  50C3               	movf	4035,w,c	;volatile
  4030  001A92  6E0F               	movwf	?_ReadADC,c
  4031  001A94  C011  F010         	movff	??_ReadADC,?_ReadADC+1
  4032  001A98  D000               	goto	l391
  4033  001A9A                     l391:
  4034  001A9A  0012               	return		;funcret
  4035  001A9C                     __end_of_ReadADC:
  4036                           	opt stack 0
  4037                           stkptr	equ	0xFFC
  4038                           tblptru	equ	0xFF8
  4039                           tblptrh	equ	0xFF7
  4040                           tblptrl	equ	0xFF6
  4041                           tablat	equ	0xFF5
  4042                           prodh	equ	0xFF4
  4043                           prodl	equ	0xFF3
  4044                           intcon	equ	0xFF2
  4045                           wreg	equ	0xFE8
  4046                           status	equ	0xFD8
  4047                           
  4048 ;; *************** function _ConvertADC *****************
  4049 ;; Defined at:
  4050 ;;		line 22 in file "C:\Program Files (x86)\Microchip\xc8\v1.34\sources\pic18\plib\ADC\adcconv.c"
  4051 ;; Parameters:    Size  Location     Type
  4052 ;;		None
  4053 ;; Auto vars:     Size  Location     Type
  4054 ;;		None
  4055 ;; Return value:  Size  Location     Type
  4056 ;;		None               void
  4057 ;; Registers used:
  4058 ;;		None
  4059 ;; Tracked objects:
  4060 ;;		On entry : 0/0
  4061 ;;		On exit  : 0/0
  4062 ;;		Unchanged: 0/0
  4063 ;; Data sizes:     COMRAM   BANK0   BANK1   BANK2   BANK3   BANK4   BANK5   BANK6   BANK7   BANK8   BANK9  BANK10  BANK1
      +1  BANK12  BANK13  BANK14  BANK15
  4064 ;;      Params:         0       0       0       0       0       0       0       0       0       0       0       0       
      +0       0       0       0       0
  4065 ;;      Locals:         0       0       0       0       0       0       0       0       0       0       0       0       
      +0       0       0       0       0
  4066 ;;      Temps:          0       0       0       0       0       0       0       0       0       0       0       0       
      +0       0       0       0       0
  4067 ;;      Totals:         0       0       0       0       0       0       0       0       0       0       0       0       
      +0       0       0       0       0
  4068 ;;Total ram usage:        0 bytes
  4069 ;; Hardware stack levels used:    1
  4070 ;; Hardware stack levels required when called:    1
  4071 ;; This function calls:
  4072 ;;		Nothing
  4073 ;; This function is called by:
  4074 ;;		_adc
  4075 ;; This function uses a non-reentrant model
  4076 ;;
  4077                           
  4078                           	psect	text42
  4079  001AF0                     __ptext42:
  4080                           	opt stack 0
  4081  001AF0                     _ConvertADC:
  4082                           	opt stack 27
  4083                           
  4084                           ;incstack = 0
  4085  001AF0  82C2               	bsf	4034,1,c	;volatile
  4086  001AF2  0012               	return		;funcret
  4087  001AF4                     __end_of_ConvertADC:
  4088                           	opt stack 0
  4089                           stkptr	equ	0xFFC
  4090                           tblptru	equ	0xFF8
  4091                           tblptrh	equ	0xFF7
  4092                           tblptrl	equ	0xFF6
  4093                           tablat	equ	0xFF5
  4094                           prodh	equ	0xFF4
  4095                           prodl	equ	0xFF3
  4096                           intcon	equ	0xFF2
  4097                           wreg	equ	0xFE8
  4098                           status	equ	0xFD8
  4099                           
  4100 ;; *************** function _BusyADC *****************
  4101 ;; Defined at:
  4102 ;;		line 26 in file "C:\Program Files (x86)\Microchip\xc8\v1.34\sources\pic18\plib\ADC\adcbusy.c"
  4103 ;; Parameters:    Size  Location     Type
  4104 ;;		None
  4105 ;; Auto vars:     Size  Location     Type
  4106 ;;		None
  4107 ;; Return value:  Size  Location     Type
  4108 ;;                  1    wreg      unsigned char 
  4109 ;; Registers used:
  4110 ;;		wreg
  4111 ;; Tracked objects:
  4112 ;;		On entry : 0/0
  4113 ;;		On exit  : 0/0
  4114 ;;		Unchanged: 0/0
  4115 ;; Data sizes:     COMRAM   BANK0   BANK1   BANK2   BANK3   BANK4   BANK5   BANK6   BANK7   BANK8   BANK9  BANK10  BANK1
      +1  BANK12  BANK13  BANK14  BANK15
  4116 ;;      Params:         0       0       0       0       0       0       0       0       0       0       0       0       
      +0       0       0       0       0
  4117 ;;      Locals:         0       0       0       0       0       0       0       0       0       0       0       0       
      +0       0       0       0       0
  4118 ;;      Temps:          0       0       0       0       0       0       0       0       0       0       0       0       
      +0       0       0       0       0
  4119 ;;      Totals:         0       0       0       0       0       0       0       0       0       0       0       0       
      +0       0       0       0       0
  4120 ;;Total ram usage:        0 bytes
  4121 ;; Hardware stack levels used:    1
  4122 ;; Hardware stack levels required when called:    1
  4123 ;; This function calls:
  4124 ;;		Nothing
  4125 ;; This function is called by:
  4126 ;;		_adc
  4127 ;; This function uses a non-reentrant model
  4128 ;;
  4129                           
  4130                           	psect	text43
  4131  001AB8                     __ptext43:
  4132                           	opt stack 0
  4133  001AB8                     _BusyADC:
  4134                           	opt stack 27
  4135                           
  4136                           ;incstack = 0
  4137  001AB8  A2C2               	btfss	4034,1,c	;volatile
  4138  001ABA  D002               	goto	u150
  4139  001ABC  0E01               	movlw	1
  4140  001ABE  D002               	goto	l361
  4141  001AC0                     u150:
  4142  001AC0  0E00               	movlw	0
  4143  001AC2  D000               	goto	l361
  4144  001AC4                     l361:
  4145  001AC4  0012               	return		;funcret
  4146  001AC6                     __end_of_BusyADC:
  4147                           	opt stack 0
  4148                           stkptr	equ	0xFFC
  4149                           tblptru	equ	0xFF8
  4150                           tblptrh	equ	0xFF7
  4151                           tblptrl	equ	0xFF6
  4152                           tablat	equ	0xFF5
  4153                           prodh	equ	0xFF4
  4154                           prodl	equ	0xFF3
  4155                           intcon	equ	0xFF2
  4156                           wreg	equ	0xFE8
  4157                           status	equ	0xFD8
  4158                           
  4159 ;; *************** function _LVtrap *****************
  4160 ;; Defined at:
  4161 ;;		line 448 in file "sumovore.c"
  4162 ;; Parameters:    Size  Location     Type
  4163 ;;		None
  4164 ;; Auto vars:     Size  Location     Type
  4165 ;;		None
  4166 ;; Return value:  Size  Location     Type
  4167 ;;		None               void
  4168 ;; Registers used:
  4169 ;;		wreg, status,2, status,0, tblptrl, tblptrh, tblptru, cstack
  4170 ;; Tracked objects:
  4171 ;;		On entry : 0/0
  4172 ;;		On exit  : 0/0
  4173 ;;		Unchanged: 0/0
  4174 ;; Data sizes:     COMRAM   BANK0   BANK1   BANK2   BANK3   BANK4   BANK5   BANK6   BANK7   BANK8   BANK9  BANK10  BANK1
      +1  BANK12  BANK13  BANK14  BANK15
  4175 ;;      Params:         0       0       0       0       0       0       0       0       0       0       0       0       
      +0       0       0       0       0
  4176 ;;      Locals:         0       0       0       0       0       0       0       0       0       0       0       0       
      +0       0       0       0       0
  4177 ;;      Temps:          0       0       0       0       0       0       0       0       0       0       0       0       
      +0       0       0       0       0
  4178 ;;      Totals:         0       0       0       0       0       0       0       0       0       0       0       0       
      +0       0       0       0       0
  4179 ;;Total ram usage:        0 bytes
  4180 ;; Hardware stack levels used:    1
  4181 ;; Hardware stack levels required when called:    3
  4182 ;; This function calls:
  4183 ;;		_gtrap
  4184 ;;		_openPORTD
  4185 ;;		_printf
  4186 ;; This function is called by:
  4187 ;;		_main
  4188 ;; This function uses a non-reentrant model
  4189 ;;
  4190                           
  4191                           	psect	text44
  4192  0019A4                     __ptext44:
  4193                           	opt stack 0
  4194  0019A4                     _LVtrap:
  4195                           	opt stack 27
  4196                           
  4197                           ;sumovore.c: 450: printf("\\<LVD>");
  4198                           
  4199                           ;incstack = 0
  4200  0019A4  0E6B               	movlw	low STR_7
  4201  0019A6  6E0F               	movwf	printf@f,c
  4202  0019A8  0E10               	movlw	high STR_7
  4203  0019AA  6E10               	movwf	printf@f+1,c
  4204  0019AC  ECEB  F00B         	call	_printf	;wreg free
  4205                           
  4206                           ;sumovore.c: 451: openPORTD();
  4207  0019B0  EC75  F00D         	call	_openPORTD	;wreg free
  4208                           
  4209                           ;sumovore.c: 452: PORTDbits.RD0=!1;
  4210  0019B4  9083               	bcf	3971,0,c	;volatile
  4211                           
  4212                           ;sumovore.c: 453: PORTDbits.RD1=!0;
  4213  0019B6  8283               	bsf	3971,1,c	;volatile
  4214                           
  4215                           ;sumovore.c: 454: PORTDbits.RD2=!0;
  4216  0019B8  8483               	bsf	3971,2,c	;volatile
  4217                           
  4218                           ;sumovore.c: 455: PORTDbits.RD3=!1;
  4219  0019BA  9683               	bcf	3971,3,c	;volatile
  4220                           
  4221                           ;sumovore.c: 456: PORTDbits.RD4=!0;
  4222  0019BC  8883               	bsf	3971,4,c	;volatile
  4223                           
  4224                           ;sumovore.c: 457: gtrap();
  4225  0019BE  ECBD  F00A         	call	_gtrap	;wreg free
  4226  0019C2  0012               	return		;funcret
  4227  0019C4                     __end_of_LVtrap:
  4228                           	opt stack 0
  4229                           stkptr	equ	0xFFC
  4230                           tblptru	equ	0xFF8
  4231                           tblptrh	equ	0xFF7
  4232                           tblptrl	equ	0xFF6
  4233                           tablat	equ	0xFF5
  4234                           prodh	equ	0xFF4
  4235                           prodl	equ	0xFF3
  4236                           intcon	equ	0xFF2
  4237                           wreg	equ	0xFE8
  4238                           status	equ	0xFD8
  4239                           
  4240 ;; *************** function _printf *****************
  4241 ;; Defined at:
  4242 ;;		line 464 in file "C:\Program Files (x86)\Microchip\xc8\v1.34\sources\common\doprnt.c"
  4243 ;; Parameters:    Size  Location     Type
  4244 ;;  f               2   14[COMRAM] PTR const unsigned char 
  4245 ;;		 -> STR_7(7), STR_6(10), STR_5(9), STR_4(9), 
  4246 ;;		 -> STR_3(6), STR_2(6), STR_1(64), 
  4247 ;; Auto vars:     Size  Location     Type
  4248 ;;  tmpval          4    0        struct .
  4249 ;;  cp              3    0        PTR const unsigned char 
  4250 ;;  ap              2   16[COMRAM] PTR void [1]
  4251 ;;		 -> ?_printf(2), 
  4252 ;;  len             2    0        unsigned int 
  4253 ;;  val             2    0        unsigned int 
  4254 ;;  c               1   18[COMRAM] char 
  4255 ;;  flag            1    0        unsigned char 
  4256 ;;  prec            1    0        char 
  4257 ;; Return value:  Size  Location     Type
  4258 ;;                  2   14[COMRAM] int 
  4259 ;; Registers used:
  4260 ;;		wreg, status,2, status,0, tblptrl, tblptrh, tblptru, cstack
  4261 ;; Tracked objects:
  4262 ;;		On entry : 0/0
  4263 ;;		On exit  : 0/0
  4264 ;;		Unchanged: 0/0
  4265 ;; Data sizes:     COMRAM   BANK0   BANK1   BANK2   BANK3   BANK4   BANK5   BANK6   BANK7   BANK8   BANK9  BANK10  BANK1
      +1  BANK12  BANK13  BANK14  BANK15
  4266 ;;      Params:         2       0       0       0       0       0       0       0       0       0       0       0       
      +0       0       0       0       0
  4267 ;;      Locals:         3       0       0       0       0       0       0       0       0       0       0       0       
      +0       0       0       0       0
  4268 ;;      Temps:          0       0       0       0       0       0       0       0       0       0       0       0       
      +0       0       0       0       0
  4269 ;;      Totals:         5       0       0       0       0       0       0       0       0       0       0       0       
      +0       0       0       0       0
  4270 ;;Total ram usage:        5 bytes
  4271 ;; Hardware stack levels used:    1
  4272 ;; Hardware stack levels required when called:    2
  4273 ;; This function calls:
  4274 ;;		_putch
  4275 ;; This function is called by:
  4276 ;;		_main
  4277 ;;		_PORtask
  4278 ;;		_BORtask
  4279 ;;		_WDTtask
  4280 ;;		_STKFULtask
  4281 ;;		_RESETtask
  4282 ;;		_LVtrap
  4283 ;; This function uses a non-reentrant model
  4284 ;;
  4285                           
  4286                           	psect	text45
  4287  0017D6                     __ptext45:
  4288                           	opt stack 0
  4289  0017D6                     _printf:
  4290                           	opt stack 28
  4291                           
  4292                           ;doprnt.c: 466: va_list ap;
  4293                           ;doprnt.c: 499: signed char c;
  4294                           ;doprnt.c: 506: signed char prec;
  4295                           ;doprnt.c: 508: unsigned char flag;
  4296                           ;doprnt.c: 523: union {
  4297                           ;doprnt.c: 524: unsigned long vd;
  4298                           ;doprnt.c: 525: double integ;
  4299                           ;doprnt.c: 526: } tmpval;
  4300                           ;doprnt.c: 528: unsigned int val;
  4301                           ;doprnt.c: 529: unsigned len;
  4302                           ;doprnt.c: 530: const char * cp;
  4303                           ;doprnt.c: 533: *ap = __va_start();
  4304                           
  4305                           ;incstack = 0
  4306  0017D6  0E11               	movlw	low (?_printf+2)
  4307  0017D8  6E11               	movwf	printf@ap,c
  4308  0017DA  0E00               	movlw	high (?_printf+2)
  4309  0017DC  6E12               	movwf	printf@ap+1,c
  4310                           
  4311                           ;doprnt.c: 536: while(c = *f++) {
  4312  0017DE  D004               	goto	l1720
  4313  0017E0                     l1718:
  4314                           
  4315                           ;doprnt.c: 540: {
  4316                           ;doprnt.c: 541: (putch(c) );
  4317  0017E0  5013               	movf	printf@c,w,c
  4318  0017E2  EC7A  F00D         	call	_putch
  4319                           
  4320                           ;doprnt.c: 542: continue;
  4321  0017E6  D000               	goto	l1720
  4322  0017E8                     l1720:
  4323  0017E8  C00F  FFF6         	movff	printf@f,tblptrl
  4324  0017EC  C010  FFF7         	movff	printf@f+1,tblptrh
  4325  0017F0  4A0F               	infsnz	printf@f,f,c
  4326  0017F2  2A10               	incf	printf@f+1,f,c
  4327  0017F4                     	if	1	;Program memory is < 0x10000, tblptru is always zero
  4328  0017F4  6AF8               	clrf	tblptru,c
  4329  0017F6                     	endif
  4330  0017F6                     	if	0	;tblptru may be non-zero
  4331  0017F6                     	endif
  4332  0017F6  0008               	tblrd		*
  4333  0017F8  CFF5 F013          	movff	tablat,printf@c
  4334  0017FC  5013               	movf	printf@c,w,c
  4335  0017FE  A4D8               	btfss	status,2,c
  4336  001800  D7EF               	goto	l1718
  4337                           
  4338                           ;doprnt.c: 1469: }
  4339                           ;doprnt.c: 1533: }
  4340                           ;doprnt.c: 1540: return 0;
  4341                           ;	Return value of _printf is never used
  4342  001802  0012               	return		;funcret
  4343  001804                     __end_of_printf:
  4344                           	opt stack 0
  4345                           stkptr	equ	0xFFC
  4346                           tblptru	equ	0xFF8
  4347                           tblptrh	equ	0xFF7
  4348                           tblptrl	equ	0xFF6
  4349                           tablat	equ	0xFF5
  4350                           prodh	equ	0xFF4
  4351                           prodl	equ	0xFF3
  4352                           intcon	equ	0xFF2
  4353                           wreg	equ	0xFE8
  4354                           status	equ	0xFD8
  4355                           
  4356 ;; *************** function _putch *****************
  4357 ;; Defined at:
  4358 ;;		line 7 in file "C:\Program Files (x86)\Microchip\xc8\v1.34\sources\common\putch.c"
  4359 ;; Parameters:    Size  Location     Type
  4360 ;;  c               1    wreg     unsigned char 
  4361 ;; Auto vars:     Size  Location     Type
  4362 ;;  c               1    0[COMRAM] unsigned char 
  4363 ;; Return value:  Size  Location     Type
  4364 ;;		None               void
  4365 ;; Registers used:
  4366 ;;		wreg
  4367 ;; Tracked objects:
  4368 ;;		On entry : 0/0
  4369 ;;		On exit  : 0/0
  4370 ;;		Unchanged: 0/0
  4371 ;; Data sizes:     COMRAM   BANK0   BANK1   BANK2   BANK3   BANK4   BANK5   BANK6   BANK7   BANK8   BANK9  BANK10  BANK1
      +1  BANK12  BANK13  BANK14  BANK15
  4372 ;;      Params:         0       0       0       0       0       0       0       0       0       0       0       0       
      +0       0       0       0       0
  4373 ;;      Locals:         0       0       0       0       0       0       0       0       0       0       0       0       
      +0       0       0       0       0
  4374 ;;      Temps:          0       0       0       0       0       0       0       0       0       0       0       0       
      +0       0       0       0       0
  4375 ;;      Totals:         0       0       0       0       0       0       0       0       0       0       0       0       
      +0       0       0       0       0
  4376 ;;Total ram usage:        0 bytes
  4377 ;; Hardware stack levels used:    1
  4378 ;; Hardware stack levels required when called:    1
  4379 ;; This function calls:
  4380 ;;		Nothing
  4381 ;; This function is called by:
  4382 ;;		_printf
  4383 ;; This function uses a non-reentrant model
  4384 ;;
  4385                           
  4386                           	psect	text46
  4387  001AF4                     __ptext46:
  4388                           	opt stack 0
  4389  001AF4                     _putch:
  4390                           	opt stack 28
  4391                           
  4392                           ;incstack = 0
  4393  001AF4  0012               	return		;funcret
  4394  001AF6                     __end_of_putch:
  4395                           	opt stack 0
  4396                           stkptr	equ	0xFFC
  4397                           tblptru	equ	0xFF8
  4398                           tblptrh	equ	0xFF7
  4399                           tblptrl	equ	0xFF6
  4400                           tablat	equ	0xFF5
  4401                           prodh	equ	0xFF4
  4402                           prodl	equ	0xFF3
  4403                           intcon	equ	0xFF2
  4404                           wreg	equ	0xFE8
  4405                           status	equ	0xFD8
  4406                           
  4407 ;; *************** function _openPORTD *****************
  4408 ;; Defined at:
  4409 ;;		line 168 in file "sumovore.c"
  4410 ;; Parameters:    Size  Location     Type
  4411 ;;		None
  4412 ;; Auto vars:     Size  Location     Type
  4413 ;;		None
  4414 ;; Return value:  Size  Location     Type
  4415 ;;		None               void
  4416 ;; Registers used:
  4417 ;;		wreg, status,2
  4418 ;; Tracked objects:
  4419 ;;		On entry : 0/0
  4420 ;;		On exit  : 0/0
  4421 ;;		Unchanged: 0/0
  4422 ;; Data sizes:     COMRAM   BANK0   BANK1   BANK2   BANK3   BANK4   BANK5   BANK6   BANK7   BANK8   BANK9  BANK10  BANK1
      +1  BANK12  BANK13  BANK14  BANK15
  4423 ;;      Params:         0       0       0       0       0       0       0       0       0       0       0       0       
      +0       0       0       0       0
  4424 ;;      Locals:         0       0       0       0       0       0       0       0       0       0       0       0       
      +0       0       0       0       0
  4425 ;;      Temps:          0       0       0       0       0       0       0       0       0       0       0       0       
      +0       0       0       0       0
  4426 ;;      Totals:         0       0       0       0       0       0       0       0       0       0       0       0       
      +0       0       0       0       0
  4427 ;;Total ram usage:        0 bytes
  4428 ;; Hardware stack levels used:    1
  4429 ;; Hardware stack levels required when called:    1
  4430 ;; This function calls:
  4431 ;;		Nothing
  4432 ;; This function is called by:
  4433 ;;		_initialization
  4434 ;;		_LVtrap
  4435 ;; This function uses a non-reentrant model
  4436 ;;
  4437                           
  4438                           	psect	text47
  4439  001AEA                     __ptext47:
  4440                           	opt stack 0
  4441  001AEA                     _openPORTD:
  4442                           	opt stack 28
  4443                           
  4444                           ;sumovore.c: 170: TRISD = 0b01100000;
  4445                           
  4446                           ;incstack = 0
  4447  001AEA  0E60               	movlw	96
  4448  001AEC  6E95               	movwf	3989,c	;volatile
  4449  001AEE  0012               	return		;funcret
  4450  001AF0                     __end_of_openPORTD:
  4451                           	opt stack 0
  4452                           stkptr	equ	0xFFC
  4453                           tblptru	equ	0xFF8
  4454                           tblptrh	equ	0xFF7
  4455                           tblptrl	equ	0xFF6
  4456                           tablat	equ	0xFF5
  4457                           prodh	equ	0xFF4
  4458                           prodl	equ	0xFF3
  4459                           intcon	equ	0xFF2
  4460                           wreg	equ	0xFE8
  4461                           status	equ	0xFD8
  4462                           
  4463 ;; *************** function _gtrap *****************
  4464 ;; Defined at:
  4465 ;;		line 463 in file "sumovore.c"
  4466 ;; Parameters:    Size  Location     Type
  4467 ;;		None
  4468 ;; Auto vars:     Size  Location     Type
  4469 ;;  count           4   14[COMRAM] unsigned long 
  4470 ;; Return value:  Size  Location     Type
  4471 ;;		None               void
  4472 ;; Registers used:
  4473 ;;		wreg, status,2, status,0
  4474 ;; Tracked objects:
  4475 ;;		On entry : 0/0
  4476 ;;		On exit  : 0/0
  4477 ;;		Unchanged: 0/0
  4478 ;; Data sizes:     COMRAM   BANK0   BANK1   BANK2   BANK3   BANK4   BANK5   BANK6   BANK7   BANK8   BANK9  BANK10  BANK1
      +1  BANK12  BANK13  BANK14  BANK15
  4479 ;;      Params:         0       0       0       0       0       0       0       0       0       0       0       0       
      +0       0       0       0       0
  4480 ;;      Locals:         4       0       0       0       0       0       0       0       0       0       0       0       
      +0       0       0       0       0
  4481 ;;      Temps:          0       0       0       0       0       0       0       0       0       0       0       0       
      +0       0       0       0       0
  4482 ;;      Totals:         4       0       0       0       0       0       0       0       0       0       0       0       
      +0       0       0       0       0
  4483 ;;Total ram usage:        4 bytes
  4484 ;; Hardware stack levels used:    1
  4485 ;; Hardware stack levels required when called:    1
  4486 ;; This function calls:
  4487 ;;		Nothing
  4488 ;; This function is called by:
  4489 ;;		_BORtask
  4490 ;;		_WDTtask
  4491 ;;		_STKFULtask
  4492 ;;		_RESETtask
  4493 ;;		_LVtrap
  4494 ;; This function uses a non-reentrant model
  4495 ;;
  4496                           
  4497                           	psect	text48
  4498  00157A                     __ptext48:
  4499                           	opt stack 0
  4500  00157A                     _gtrap:
  4501                           	opt stack 26
  4502                           
  4503                           ;sumovore.c: 465: unsigned long count=0;
  4504                           
  4505                           ;incstack = 0
  4506  00157A  0E00               	movlw	0
  4507  00157C  6E0F               	movwf	gtrap@count,c
  4508  00157E  0E00               	movlw	0
  4509  001580  6E10               	movwf	gtrap@count+1,c
  4510  001582  0E00               	movlw	0
  4511  001584  6E11               	movwf	gtrap@count+2,c
  4512  001586  0E00               	movlw	0
  4513  001588  6E12               	movwf	gtrap@count+3,c
  4514  00158A                     l235:
  4515  00158A  0004               	clrwdt		;# 
  4516                           
  4517                           ;sumovore.c: 470: if (count==30000u)
  4518  00158C  0E30               	movlw	48
  4519  00158E  180F               	xorwf	gtrap@count,w,c
  4520  001590  E111               	bnz	l1176
  4521  001592  0E75               	movlw	117
  4522  001594  1810               	xorwf	gtrap@count+1,w,c
  4523  001596  1011               	iorwf	gtrap@count+2,w,c
  4524  001598  1012               	iorwf	gtrap@count+3,w,c
  4525  00159A  A4D8               	btfss	status,2,c
  4526  00159C  D00B               	goto	l1176
  4527                           
  4528                           ;sumovore.c: 471: {
  4529                           ;sumovore.c: 472: count=0;
  4530  00159E  0E00               	movlw	0
  4531  0015A0  6E0F               	movwf	gtrap@count,c
  4532  0015A2  0E00               	movlw	0
  4533  0015A4  6E10               	movwf	gtrap@count+1,c
  4534  0015A6  0E00               	movlw	0
  4535  0015A8  6E11               	movwf	gtrap@count+2,c
  4536  0015AA  0E00               	movlw	0
  4537  0015AC  6E12               	movwf	gtrap@count+3,c
  4538                           
  4539                           ;sumovore.c: 473: PORTDbits.RD0=!1;
  4540  0015AE  9083               	bcf	3971,0,c	;volatile
  4541                           
  4542                           ;sumovore.c: 474: PORTDbits.RD1=!0;
  4543  0015B0  8283               	bsf	3971,1,c	;volatile
  4544                           
  4545                           ;sumovore.c: 475: }
  4546  0015B2  D00C               	goto	l1180
  4547  0015B4                     l1176:
  4548                           
  4549                           ;sumovore.c: 476: else if (count==15000u)
  4550  0015B4  0E98               	movlw	152
  4551  0015B6  180F               	xorwf	gtrap@count,w,c
  4552  0015B8  E109               	bnz	l1180
  4553  0015BA  0E3A               	movlw	58
  4554  0015BC  1810               	xorwf	gtrap@count+1,w,c
  4555  0015BE  1011               	iorwf	gtrap@count+2,w,c
  4556  0015C0  1012               	iorwf	gtrap@count+3,w,c
  4557  0015C2  A4D8               	btfss	status,2,c
  4558  0015C4  D003               	goto	l1180
  4559                           
  4560                           ;sumovore.c: 477: {
  4561                           ;sumovore.c: 478: PORTDbits.RD0=!0;
  4562  0015C6  8083               	bsf	3971,0,c	;volatile
  4563                           
  4564                           ;sumovore.c: 479: PORTDbits.RD1=!1;
  4565  0015C8  9283               	bcf	3971,1,c	;volatile
  4566  0015CA  D000               	goto	l1180
  4567  0015CC                     l1180:
  4568                           
  4569                           ;sumovore.c: 480: }
  4570                           ;sumovore.c: 481: count++;
  4571  0015CC  0E01               	movlw	1
  4572  0015CE  260F               	addwf	gtrap@count,f,c
  4573  0015D0  0E00               	movlw	0
  4574  0015D2  2210               	addwfc	gtrap@count+1,f,c
  4575  0015D4  2211               	addwfc	gtrap@count+2,f,c
  4576  0015D6  2212               	addwfc	gtrap@count+3,f,c
  4577  0015D8  D7D8               	goto	l235
  4578  0015DA  0012               	return		;funcret
  4579  0015DC                     __end_of_gtrap:
  4580                           	opt stack 0
  4581                           stkptr	equ	0xFFC
  4582                           tblptru	equ	0xFF8
  4583                           tblptrh	equ	0xFF7
  4584                           tblptrl	equ	0xFF6
  4585                           tablat	equ	0xFF5
  4586                           prodh	equ	0xFF4
  4587                           prodl	equ	0xFF3
  4588                           intcon	equ	0xFF2
  4589                           wreg	equ	0xFE8
  4590                           status	equ	0xFD8
  4591                           
  4592 ;; *************** function _high_isr *****************
  4593 ;; Defined at:
  4594 ;;		line 24 in file "interrupts.c"
  4595 ;; Parameters:    Size  Location     Type
  4596 ;;		None
  4597 ;; Auto vars:     Size  Location     Type
  4598 ;;		None
  4599 ;; Return value:  Size  Location     Type
  4600 ;;		None               void
  4601 ;; Registers used:
  4602 ;;		wreg, status,2
  4603 ;; Tracked objects:
  4604 ;;		On entry : 0/0
  4605 ;;		On exit  : 0/0
  4606 ;;		Unchanged: 0/0
  4607 ;; Data sizes:     COMRAM   BANK0   BANK1   BANK2   BANK3   BANK4   BANK5   BANK6   BANK7   BANK8   BANK9  BANK10  BANK1
      +1  BANK12  BANK13  BANK14  BANK15
  4608 ;;      Params:         0       0       0       0       0       0       0       0       0       0       0       0       
      +0       0       0       0       0
  4609 ;;      Locals:         0       0       0       0       0       0       0       0       0       0       0       0       
      +0       0       0       0       0
  4610 ;;      Temps:         14       0       0       0       0       0       0       0       0       0       0       0       
      +0       0       0       0       0
  4611 ;;      Totals:        14       0       0       0       0       0       0       0       0       0       0       0       
      +0       0       0       0       0
  4612 ;;Total ram usage:       14 bytes
  4613 ;; Hardware stack levels used:    1
  4614 ;; This function calls:
  4615 ;;		Nothing
  4616 ;; This function is called by:
  4617 ;;		Interrupt level 2
  4618 ;; This function uses a non-reentrant model
  4619 ;;
  4620                           
  4621                           	psect	intcode
  4622  000008                     __pintcode:
  4623                           	opt stack 0
  4624  000008                     _high_isr:
  4625                           	opt stack 25
  4626                           
  4627                           ;incstack = 0
  4628  000008  CFFA F001          	movff	pclath,??_high_isr
  4629  00000C  CFFB F002          	movff	pclatu,??_high_isr+1
  4630  000010  CFE9 F003          	movff	fsr0l,??_high_isr+2
  4631  000014  ED46  F00A         	call	int_func,f	;refresh shadow registers
  4632                           stkptr	equ	0xFFC
  4633                           pclatu	equ	0xFFB
  4634                           pclath	equ	0xFFA
  4635                           tblptru	equ	0xFF8
  4636                           tblptrh	equ	0xFF7
  4637                           tblptrl	equ	0xFF6
  4638                           tablat	equ	0xFF5
  4639                           prodh	equ	0xFF4
  4640                           prodl	equ	0xFF3
  4641                           intcon	equ	0xFF2
  4642                           fsr0l	equ	0xFE9
  4643                           wreg	equ	0xFE8
  4644                           status	equ	0xFD8
  4645                           
  4646                           	psect	intcode_body
  4647  00148C                     __pintcode_body:
  4648                           	opt stack 25
  4649  00148C                     int_func:
  4650                           	opt stack 25
  4651  00148C  0006               	pop		; remove dummy address from shadow register refresh
  4652  00148E  CFEA F004          	movff	fsr0h,??_high_isr+3
  4653  001492  CFE1 F005          	movff	fsr1l,??_high_isr+4
  4654  001496  CFE2 F006          	movff	fsr1h,??_high_isr+5
  4655  00149A  CFD9 F007          	movff	fsr2l,??_high_isr+6
  4656  00149E  CFDA F008          	movff	fsr2h,??_high_isr+7
  4657  0014A2  CFF3 F009          	movff	prodl,??_high_isr+8
  4658  0014A6  CFF4 F00A          	movff	prodh,??_high_isr+9
  4659  0014AA  CFF6 F00B          	movff	tblptrl,??_high_isr+10
  4660  0014AE  CFF7 F00C          	movff	tblptrh,??_high_isr+11
  4661  0014B2  CFF8 F00D          	movff	tblptru,??_high_isr+12
  4662  0014B6  CFF5 F00E          	movff	tablat,??_high_isr+13
  4663                           
  4664                           ;interrupts.c: 26: PIR2bits.HLVDIF = 0;
  4665  0014BA  94A1               	bcf	4001,2,c	;volatile
  4666                           
  4667                           ;interrupts.c: 27: TRISA = 0xff;
  4668  0014BC  6892               	setf	3986,c	;volatile
  4669                           
  4670                           ;interrupts.c: 28: TRISB = 0xff;
  4671  0014BE  6893               	setf	3987,c	;volatile
  4672                           
  4673                           ;interrupts.c: 29: TRISC = 0xff;
  4674  0014C0  6894               	setf	3988,c	;volatile
  4675                           
  4676                           ;interrupts.c: 30: TRISD = 0xff;
  4677  0014C2  6895               	setf	3989,c	;volatile
  4678                           
  4679                           ;interrupts.c: 31: TRISE = 0x03;
  4680  0014C4  0E03               	movlw	3
  4681  0014C6  6E96               	movwf	3990,c	;volatile
  4682                           
  4683                           ;interrupts.c: 32: lvd_flag =1;
  4684  0014C8  0E01               	movlw	1
  4685  0014CA  6E20               	movwf	_lvd_flag,c
  4686                           
  4687                           ;interrupts.c: 36: PIE2bits.HLVDIE = 0;
  4688  0014CC  94A0               	bcf	4000,2,c	;volatile
  4689                           
  4690                           ;interrupts.c: 40: HLVDCONbits.HLVDEN = 0;
  4691  0014CE  98D2               	bcf	4050,4,c	;volatile
  4692  0014D0  C00E  FFF5         	movff	??_high_isr+13,tablat
  4693  0014D4  C00D  FFF8         	movff	??_high_isr+12,tblptru
  4694  0014D8  C00C  FFF7         	movff	??_high_isr+11,tblptrh
  4695  0014DC  C00B  FFF6         	movff	??_high_isr+10,tblptrl
  4696  0014E0  C00A  FFF4         	movff	??_high_isr+9,prodh
  4697  0014E4  C009  FFF3         	movff	??_high_isr+8,prodl
  4698  0014E8  C008  FFDA         	movff	??_high_isr+7,fsr2h
  4699  0014EC  C007  FFD9         	movff	??_high_isr+6,fsr2l
  4700  0014F0  C006  FFE2         	movff	??_high_isr+5,fsr1h
  4701  0014F4  C005  FFE1         	movff	??_high_isr+4,fsr1l
  4702  0014F8  C004  FFEA         	movff	??_high_isr+3,fsr0h
  4703  0014FC  C003  FFE9         	movff	??_high_isr+2,fsr0l
  4704  001500  C002  FFFB         	movff	??_high_isr+1,pclatu
  4705  001504  C001  FFFA         	movff	??_high_isr,pclath
  4706  001508  0011               	retfie		f
  4707  00150A                     __end_of_high_isr:
  4708                           	opt stack 0
  4709                           stkptr	equ	0xFFC
  4710                           pclatu	equ	0xFFB
  4711                           pclath	equ	0xFFA
  4712                           tblptru	equ	0xFF8
  4713                           tblptrh	equ	0xFF7
  4714                           tblptrl	equ	0xFF6
  4715                           tablat	equ	0xFF5
  4716                           prodh	equ	0xFF4
  4717                           prodl	equ	0xFF3
  4718                           intcon	equ	0xFF2
  4719                           fsr0h	equ	0xFEA
  4720                           fsr0l	equ	0xFE9
  4721                           wreg	equ	0xFE8
  4722                           fsr1h	equ	0xFE2
  4723                           fsr1l	equ	0xFE1
  4724                           fsr2h	equ	0xFDA
  4725                           fsr2l	equ	0xFD9
  4726                           status	equ	0xFD8
  4727                           stkptr	equ	0xFFC
  4728                           pclatu	equ	0xFFB
  4729                           pclath	equ	0xFFA
  4730                           tblptru	equ	0xFF8
  4731                           tblptrh	equ	0xFF7
  4732                           tblptrl	equ	0xFF6
  4733                           tablat	equ	0xFF5
  4734                           prodh	equ	0xFF4
  4735                           prodl	equ	0xFF3
  4736                           intcon	equ	0xFF2
  4737                           fsr0h	equ	0xFEA
  4738                           fsr0l	equ	0xFE9
  4739                           wreg	equ	0xFE8
  4740                           fsr1h	equ	0xFE2
  4741                           fsr1l	equ	0xFE1
  4742                           fsr2h	equ	0xFDA
  4743                           fsr2l	equ	0xFD9
  4744                           status	equ	0xFD8
  4745                           
  4746                           	psect	rparam
  4747  0000                     stkptr	equ	0xFFC
  4748                           pclatu	equ	0xFFB
  4749                           pclath	equ	0xFFA
  4750                           tblptru	equ	0xFF8
  4751                           tblptrh	equ	0xFF7
  4752                           tblptrl	equ	0xFF6
  4753                           tablat	equ	0xFF5
  4754                           prodh	equ	0xFF4
  4755                           prodl	equ	0xFF3
  4756                           intcon	equ	0xFF2
  4757                           fsr0h	equ	0xFEA
  4758                           fsr0l	equ	0xFE9
  4759                           wreg	equ	0xFE8
  4760                           fsr1h	equ	0xFE2
  4761                           fsr1l	equ	0xFE1
  4762                           fsr2h	equ	0xFDA
  4763                           fsr2l	equ	0xFD9
  4764                           status	equ	0xFD8


Data Sizes:
    Strings     111
    Constant    14
    Data        0
    BSS         4
    Persistent  0
    Stack       0

Auto Spaces:
    Space          Size  Autos    Used
    COMRAM          127     28      32
    BANK0           128      0       0
    BANK1           256      0       0
    BANK2           256      0       0
    BANK3           256      0       0
    BANK4           256      0       0
    BANK5           256      0       0
    BANK6           256      0       0
    BANK7           256      0       0
    BANK8           256      0       0
    BANK9           256      0       0
    BANK10          256      0       0
    BANK11          256      0       0
    BANK12          256      0       0
    BANK13          256      0       0
    BANK14          256      0       0
    BANK15          128      0       0

Pointer List with Targets:

    printf@f	PTR const unsigned char  size(2) Largest target is 64
		 -> STR_7(CODE[7]), STR_6(CODE[10]), STR_5(CODE[9]), STR_4(CODE[9]), 
		 -> STR_3(CODE[6]), STR_2(CODE[6]), STR_1(CODE[64]), 

    printf@ap	PTR void [1] size(2) Largest target is 2
		 -> ?_printf(COMRAM[2]), 


Critical Paths under _main in COMRAM

    _motor_control->_set_motor_speed
    _motors_brake_all->_SetDCPWM1
    _motors_brake_all->_SetDCPWM2
    _turn_right->_set_motor_speed
    _turn_left->_set_motor_speed
    _straight_fwd->_set_motor_speed
    _spin_right->_set_motor_speed
    _spin_left->_set_motor_speed
    _set_motor_speed->_SetDCPWM1
    _set_motor_speed->_SetDCPWM2
    _reset_codes->_PORtask
    _WDTtask->_printf
    _STKFULtask->_printf
    _RESETtask->_printf
    _PORtask->_printf
    _BORtask->_printf
    _check_sensors->_adc
    _adc->_ReadADC
    _LVtrap->_printf

Critical Paths under _high_isr in COMRAM

    None.

Critical Paths under _main in BANK0

    None.

Critical Paths under _high_isr in BANK0

    None.

Critical Paths under _main in BANK1

    None.

Critical Paths under _high_isr in BANK1

    None.

Critical Paths under _main in BANK2

    None.

Critical Paths under _high_isr in BANK2

    None.

Critical Paths under _main in BANK3

    None.

Critical Paths under _high_isr in BANK3

    None.

Critical Paths under _main in BANK4

    None.

Critical Paths under _high_isr in BANK4

    None.

Critical Paths under _main in BANK5

    None.

Critical Paths under _high_isr in BANK5

    None.

Critical Paths under _main in BANK6

    None.

Critical Paths under _high_isr in BANK6

    None.

Critical Paths under _main in BANK7

    None.

Critical Paths under _high_isr in BANK7

    None.

Critical Paths under _main in BANK8

    None.

Critical Paths under _high_isr in BANK8

    None.

Critical Paths under _main in BANK9

    None.

Critical Paths under _high_isr in BANK9

    None.

Critical Paths under _main in BANK10

    None.

Critical Paths under _high_isr in BANK10

    None.

Critical Paths under _main in BANK11

    None.

Critical Paths under _high_isr in BANK11

    None.

Critical Paths under _main in BANK12

    None.

Critical Paths under _high_isr in BANK12

    None.

Critical Paths under _main in BANK13

    None.

Critical Paths under _high_isr in BANK13

    None.

Critical Paths under _main in BANK14

    None.

Critical Paths under _high_isr in BANK14

    None.

Critical Paths under _main in BANK15

    None.

Critical Paths under _high_isr in BANK15

    None.

Call Graph Tables:

 ---------------------------------------------------------------------------------
 (Depth) Function   	        Calls       Base Space   Used Autos Params    Refs
 ---------------------------------------------------------------------------------
 (0) _main                                                 0     0      0   22215
                             _LVtrap
                      _check_sensors
                     _initialization
                       _lvd_flag_set
                      _motor_control
                             _printf
                           _set_leds
 ---------------------------------------------------------------------------------
 (1) _set_leds                                             1     1      0       0
                                             14 COMRAM     1     1      0
 ---------------------------------------------------------------------------------
 (1) _motor_control                                        0     0      0   17308
                      _WaitOneSecond
               _follow_simple_curves
                   _motors_brake_all
                    _set_motor_speed
 ---------------------------------------------------------------------------------
 (2) _motors_brake_all                                     0     0      0     520
                          _SetDCPWM1
                          _SetDCPWM2
 ---------------------------------------------------------------------------------
 (2) _follow_simple_curves                                 0     0      0   13965
                          _spin_left
                         _spin_right
                       _straight_fwd
                          _turn_left
                         _turn_right
 ---------------------------------------------------------------------------------
 (3) _turn_right                                           0     0      0    2793
                    _set_motor_speed
 ---------------------------------------------------------------------------------
 (3) _turn_left                                            0     0      0    2793
                    _set_motor_speed
 ---------------------------------------------------------------------------------
 (3) _straight_fwd                                         0     0      0    2793
                    _set_motor_speed
 ---------------------------------------------------------------------------------
 (3) _spin_right                                           0     0      0    2793
                    _set_motor_speed
 ---------------------------------------------------------------------------------
 (3) _spin_left                                            0     0      0    2793
                    _set_motor_speed
 ---------------------------------------------------------------------------------
 (2) _set_motor_speed                                      8     5      3    2793
                                             20 COMRAM     8     5      3
                          _SetDCPWM1
                          _SetDCPWM2
 ---------------------------------------------------------------------------------
 (2) _WaitOneSecond                                        3     3      0      30
                                             14 COMRAM     3     3      0
 ---------------------------------------------------------------------------------
 (1) _lvd_flag_set                                         0     0      0       0
 ---------------------------------------------------------------------------------
 (1) _initialization                                       0     0      0    3852
                            _OpenADC
                           _OpenPWM1
                           _OpenPWM2
                         _OpenTimer2
                          _OpenUSART
                          _SetDCPWM1
                          _SetDCPWM2
                            _openLVD
                          _openPORTA
                          _openPORTB
                    _openPORTCforPWM
                  _openPORTCforUSART
                          _openPORTD
                          _openPORTE
                        _reset_codes
                      _set_osc_32MHz
 ---------------------------------------------------------------------------------
 (2) _set_osc_32MHz                                        2     2      0      30
                                             14 COMRAM     2     2      0
 ---------------------------------------------------------------------------------
 (2) _reset_codes                                          0     0      0    2661
                            _BORtask
                            _PORtask
                          _RESETtask
                         _STKFULtask
                            _WDTtask
                              _isBOR
                              _isPOR
                            _isWDTTO
 ---------------------------------------------------------------------------------
 (3) _isWDTTO                                              0     0      0       0
 ---------------------------------------------------------------------------------
 (3) _isPOR                                                0     0      0       0
 ---------------------------------------------------------------------------------
 (3) _isBOR                                                0     0      0       0
 ---------------------------------------------------------------------------------
 (3) _WDTtask                                              0     0      0     524
                              _gtrap
                             _printf
 ---------------------------------------------------------------------------------
 (3) _STKFULtask                                           0     0      0     524
                              _gtrap
                             _printf
 ---------------------------------------------------------------------------------
 (3) _RESETtask                                            0     0      0     524
                              _gtrap
                             _printf
 ---------------------------------------------------------------------------------
 (3) _PORtask                                              8     8      0     565
                                             19 COMRAM     8     8      0
                        _StatusReset
                             _printf
 ---------------------------------------------------------------------------------
 (3) _BORtask                                              0     0      0     524
                        _StatusReset
                              _gtrap
                             _printf
 ---------------------------------------------------------------------------------
 (4) _StatusReset                                          0     0      0       0
 ---------------------------------------------------------------------------------
 (2) _openPORTE                                            0     0      0       0
 ---------------------------------------------------------------------------------
 (2) _openPORTCforUSART                                    0     0      0       0
 ---------------------------------------------------------------------------------
 (2) _openPORTCforPWM                                      0     0      0       0
 ---------------------------------------------------------------------------------
 (2) _openPORTB                                            0     0      0       0
 ---------------------------------------------------------------------------------
 (2) _openPORTA                                            0     0      0       0
 ---------------------------------------------------------------------------------
 (2) _openLVD                                              0     0      0       0
 ---------------------------------------------------------------------------------
 (3) _SetDCPWM2                                            6     4      2     260
                                             14 COMRAM     6     4      2
 ---------------------------------------------------------------------------------
 (3) _SetDCPWM1                                            6     4      2     260
                                             14 COMRAM     6     4      2
 ---------------------------------------------------------------------------------
 (2) _OpenUSART                                            3     1      2     284
                                             14 COMRAM     3     1      2
 ---------------------------------------------------------------------------------
 (2) _OpenTimer2                                           1     1      0      30
                                             14 COMRAM     1     1      0
 ---------------------------------------------------------------------------------
 (2) _OpenPWM2                                             3     3      0      30
                                             14 COMRAM     2     2      0
 ---------------------------------------------------------------------------------
 (2) _OpenPWM1                                             1     1      0      15
                                             14 COMRAM     1     1      0
 ---------------------------------------------------------------------------------
 (2) _OpenADC                                              5     3      2     282
                                             14 COMRAM     5     3      2
 ---------------------------------------------------------------------------------
 (1) _check_sensors                                        1     1      0      37
                                             21 COMRAM     1     1      0
                                _adc
 ---------------------------------------------------------------------------------
 (2) _adc                                                  3     1      2      37
                                             18 COMRAM     3     1      2
                            _BusyADC
                         _ConvertADC
                            _ReadADC
                         _SetChanADC
 ---------------------------------------------------------------------------------
 (3) _SetChanADC                                           2     2      0      15
                                             14 COMRAM     2     2      0
 ---------------------------------------------------------------------------------
 (3) _ReadADC                                              4     2      2       0
                                             14 COMRAM     4     2      2
 ---------------------------------------------------------------------------------
 (3) _ConvertADC                                           0     0      0       0
 ---------------------------------------------------------------------------------
 (3) _BusyADC                                              0     0      0       0
 ---------------------------------------------------------------------------------
 (1) _LVtrap                                               0     0      0     524
                              _gtrap
                          _openPORTD
                             _printf
 ---------------------------------------------------------------------------------
 (1) _printf                                              18    16      2     494
                                             14 COMRAM     5     3      2
                              _putch
 ---------------------------------------------------------------------------------
 (2) _putch                                                1     1      0       0
 ---------------------------------------------------------------------------------
 (2) _openPORTD                                            0     0      0       0
 ---------------------------------------------------------------------------------
 (4) _gtrap                                                4     4      0      30
                                             14 COMRAM     4     4      0
 ---------------------------------------------------------------------------------
 Estimated maximum stack depth 4
 ---------------------------------------------------------------------------------
 (Depth) Function   	        Calls       Base Space   Used Autos Params    Refs
 ---------------------------------------------------------------------------------
 (6) _high_isr                                            14    14      0       0
                                              0 COMRAM    14    14      0
 ---------------------------------------------------------------------------------
 Estimated maximum stack depth 6
 ---------------------------------------------------------------------------------

 Call Graph Graphs:

 _main (ROOT)
   _LVtrap
     _gtrap
     _openPORTD
     _printf
       _putch
   _check_sensors
     _adc
       _BusyADC
       _ConvertADC
       _ReadADC
       _SetChanADC
   _initialization
     _OpenADC
     _OpenPWM1
     _OpenPWM2
     _OpenTimer2
     _OpenUSART
     _SetDCPWM1
     _SetDCPWM2
     _openLVD
     _openPORTA
     _openPORTB
     _openPORTCforPWM
     _openPORTCforUSART
     _openPORTD
     _openPORTE
     _reset_codes
       _BORtask
         _StatusReset
         _gtrap
         _printf
           _putch
       _PORtask
         _StatusReset
         _printf
           _putch
       _RESETtask
         _gtrap
         _printf
           _putch
       _STKFULtask
         _gtrap
         _printf
           _putch
       _WDTtask
         _gtrap
         _printf
           _putch
       _isBOR
       _isPOR
       _isWDTTO
     _set_osc_32MHz
   _lvd_flag_set
   _motor_control
     _WaitOneSecond
     _follow_simple_curves
       _spin_left
         _set_motor_speed
           _SetDCPWM1
           _SetDCPWM2
       _spin_right
         _set_motor_speed
           _SetDCPWM1
           _SetDCPWM2
       _straight_fwd
         _set_motor_speed
           _SetDCPWM1
           _SetDCPWM2
       _turn_left
         _set_motor_speed
           _SetDCPWM1
           _SetDCPWM2
       _turn_right
         _set_motor_speed
           _SetDCPWM1
           _SetDCPWM2
     _motors_brake_all
       _SetDCPWM1
       _SetDCPWM2
     _set_motor_speed
       _SetDCPWM1
       _SetDCPWM2
   _printf
     _putch
   _set_leds

 _high_isr (ROOT)

 Address spaces:
Name               Size   Autos  Total    Cost      Usage
BIGRAM             F7F      0       0      37        0.0%
EEDATA             400      0       0       0        0.0%
BITBANK14          100      0       0      32        0.0%
BANK14             100      0       0      33        0.0%
BITBANK13          100      0       0      30        0.0%
BANK13             100      0       0      31        0.0%
BITBANK12          100      0       0      28        0.0%
BANK12             100      0       0      29        0.0%
BITBANK11          100      0       0      26        0.0%
BANK11             100      0       0      27        0.0%
BITBANK10          100      0       0      24        0.0%
BANK10             100      0       0      25        0.0%
BITBANK9           100      0       0      22        0.0%
BANK9              100      0       0      23        0.0%
BITBANK8           100      0       0      20        0.0%
BANK8              100      0       0      21        0.0%
BITBANK7           100      0       0      18        0.0%
BANK7              100      0       0      19        0.0%
BITBANK6           100      0       0      16        0.0%
BANK6              100      0       0      17        0.0%
BITBANK5           100      0       0      14        0.0%
BANK5              100      0       0      15        0.0%
BITBANK4           100      0       0      12        0.0%
BANK4              100      0       0      13        0.0%
BITBANK3           100      0       0      10        0.0%
BANK3              100      0       0      11        0.0%
BITBANK2           100      0       0       8        0.0%
BANK2              100      0       0       9        0.0%
BITBANK1           100      0       0       6        0.0%
BANK1              100      0       0       7        0.0%
BITBANK15           80      0       0      35        0.0%
BANK15              80      0       0      36        0.0%
BITBANK0            80      0       0       4        0.0%
BANK0               80      0       0       5        0.0%
BITCOMRAM           7F      0       0       0        0.0%
COMRAM              7F     1C      20       1       25.2%
BITSFR               0      0       0      40        0.0%
SFR                  0      0       0      40        0.0%
STACK                0      0       0       2        0.0%
NULL                 0      0       0       0        0.0%
ABS                  0      0      20      34        0.0%
DATA                 0      0      20       3        0.0%
CODE                 0      0       0       0        0.0%


Microchip Technology PIC18 Macro Assembler V1.34 build -361300703 
Symbol Table                                                                                   Fri Mar 18 17:29:07 2016

                         _STKPTRbits 000FFC                 _follow_simple_curves 17A2  
                                 l47 1ACA                          __CFG_BORV$0 000000  
                                l201 166A                                  l205 167A  
                                l214 137C                                  l208 1368  
                                l312 182E                                  l209 130E  
                                l235 158A                                  l172 1268  
                                l174 1284                                  l431 178C  
                                l432 1796                                  l336 16F4  
                                l361 1AC4                                  l433 1798  
                                l505 1960                                  l177 12B4  
                                l281 17B6                                  l514 193A  
                                l179 12D0                                  l283 17C0  
                                l188 1856                                  l276 114C  
                                l285 17CA                                  l454 1A30  
                                l391 1A9A                                  l383 1636  
                                l455 1A32                                  l279 17AC  
                                l480 1536                                  l288 17D4  
                                l484 1550                                  l485 1552  
                                l486 155C                                  l487 155E  
                                l496 1A62                                  l489 1578  
                                u150 1AC0                                  _PR2 000FCB  
                                u710 1446                                  u730 1460  
                                u708 1430                                  u910 1292  
                                u750 147C                                  u670 1418  
                                u728 1448                                  u690 142E  
                                u940 12C2                                  u748 1462  
                                u845 173A                                  u855 1700  
                                u928 1294                                  u768 147E  
                                u688 141A                                  u958 12C4  
                                _adc 1830                                  wreg 000FE8  
                       __CFG_LVP$OFF 000000                         __CFG_WDT$OFF 000000  
                               ?_adc 0013                                 l1210 1954  
                               l1206 1950                                 l1214 1958  
                               l1302 192E                                 l1310 1936  
                               l2040 1116                                 l2016 1080  
                               l1218 195C                                 l1306 1932  
                               l2042 111C                                 l1180 15CC  
                               l1262 1A5A                                 l2046 1122  
                               l1176 15B4                                 l1266 1A5E  
                               l1372 1814                                 l1524 16CA  
                               l2068 1698                                 l1720 17E8  
                               l1376 1828                                 l1528 16DE  
                               l1298 192A                                 l1732 1250  
                               l1718 17E0                                 l1750 12B8  
                               l1742 1288                                 l1912 164A  
                               l1744 129E                                 l1498 1788  
                               l1922 1674                                 l1916 165A  
                               l1950 183E                                 l1782 1344  
                               l1872 152E                                 l1864 151C  
                               l1786 135C                                 l1884 1548  
                               l1876 153A                                 l1868 1526  
                    __end_of_BORtask 19A4                                 STR_1 100F  
                               STR_2 1078                                 STR_3 1072  
                               STR_4 1062                                 STR_5 1059  
                               STR_6 104F                                 STR_7 106B  
                               u1200 1166                                 u1220 118C  
                               u1240 11B6                                 u1218 1168  
                               u1260 11DE                                 u1317 16E4  
                               u1238 118E                                 u1280 1204  
                               u1258 11B8                                 u1278 11E0  
                               u1298 1206                                 _TMR2 000FCC  
                       __CFG_WDTPS$8 000000                     ??_initialization 001C  
                               _main 167C                __end_of_check_sensors 1212  
                               fsr0h 000FEA                                 fsr1h 000FE2  
                               fsr0l 000FE9                                 fsr2h 000FDA  
                               fsr1l 000FE1                                 fsr2l 000FD9  
                               pclat 000FFA                        __CFG_BOREN$ON 000000  
                    __end_of_PORtask 137E                                 prodh 000FF4  
                               prodl 000FF3                __size_of_straight_fwd 0026  
                               start 0018                      __end_of_WDTtask 19FE  
                       ___param_bank 000010                      __end_of_BusyADC 1AC6  
                    __end_of_ReadADC 1A9C                ?_follow_simple_curves 0001  
                    __end_of_OpenADC 163A                                ??_adc 0015  
                              ?_main 0001                                _T2CON 000FCA  
                 __size_of_RESETtask 001C                                _RCSTA 000FAB  
                              _SPBRG 000FAF                                _PORTD 000F83  
                              _TRISA 000F92                                _TRISB 000F93  
                              _TRISC 000F94                                _TRISD 000F95  
                              _TRISE 000F96                      _set_motor_speed 1212  
                              _TXSTA 000FAC                      __end_of_isWDTTO 193C  
            __end_of_openPORTCforPWM 1AB8                __end_of_WaitOneSecond 16F6  
                              _isBOR 1A4E                                _isPOR 193C  
                              _gtrap 157A                         _straight_fwd 18A4  
                              _putch 1AF4                      __end_of_openLVD 1A4E  
                         _ConvertADC 1AF0                                tablat 000FF5  
         __size_of_openPORTCforUSART 0006                                status 000FD8  
                        ?_STKFULtask 0001                       __CFG_MCLRE$OFF 000000  
                    __initialization 1A9C                         __end_of_main 16BA  
                   __end_of_OpenPWM1 1A8C                     __end_of_OpenPWM2 17A2  
                             ??_main 001D                        __activetblptr 000003  
                         _SetChanADC 1A64                            ??_BORtask 0014  
                             ?_isBOR 0001                               ?_isPOR 0001  
                             _ADCON0 000FC2                               _ADCON1 000FC1  
                             _ADCON2 000FC0                               ?_gtrap 0001  
                             _ADRESH 000FC4                               _ADRESL 000FC3  
                             _CCPR1L 000FBE                               _CCPR2L 000FBB  
                             ?_putch 0001                            ??_PORtask 0014  
                          ??_WDTtask 0014                           _OpenTimer2 1A1A  
                             _SPBRGH 000FB0                   __size_of_SetDCPWM1 003A  
                 __size_of_SetDCPWM2 003A                            ??_BusyADC 000F  
                          ??_ReadADC 0011                               _LVtrap 19A4  
                  __end_of_RESETtask 1A1A                            ??_OpenADC 0011  
                       ?_reset_codes 0001               ??_follow_simple_curves 001D  
                   __end_of_high_isr 150A                   __size_of_OpenUSART 0070  
                     __CFG_STVREN$ON 000000              __end_of_set_motor_speed 12D2  
                   OpenTimer2@config 000F                            ??_isWDTTO 000F  
                             _printf 17D6                     __end_of_set_leds 148C  
                          ??_openLVD 000F                  __size_of_STKFULtask 001E  
                       __mediumconst 0000                               tblptrh 000FF7  
                             tblptrl 000FF6                               tblptru 000FF8  
                   ?_openPORTCforPWM 0001                    ?_motors_brake_all 0001  
                             putch@c 0001                   ??_motors_brake_all 0015  
                        ?_ConvertADC 0001                           __accesstop 0080  
            __end_of__initialization 1AA4          set_motor_speed@dir_modifier 001A  
                         adc@channel 0015                        ___rparam_used 000001  
              __end_of_set_osc_32MHz 1830                       __pcstackCOMRAM 0001  
                      __end_of_isBOR 1A64                        __end_of_isPOR 1962  
                      __end_of_gtrap 15DC                        __end_of_putch 1AF6  
                  __end_of_SetDCPWM1 176A                    __end_of_SetDCPWM2 1730  
                      ??_StatusReset 000F                          ?_SetChanADC 0001  
                      ?_lvd_flag_set 0001                              ??_isBOR 000F  
                            ??_isPOR 000F                    __end_of_OpenUSART 157A  
                            ??_gtrap 000F                              ??_putch 000F  
                        ?_OpenTimer2 0001                            ?_OpenPWM1 0001  
                          ?_OpenPWM2 0001                              ?_LVtrap 0001  
                 __size_of_openPORTA 0006                   __size_of_openPORTB 0006  
                 __size_of_openPORTD 0006                   __size_of_openPORTE 0006  
              __end_of_motor_control 114E                              _CCP1CON 000FBD  
                            _CCP2CON 000FBA                     ?_set_motor_speed 0015  
                __size_of_ConvertADC 0004                              ?_printf 000F  
                            _BORtask 1984                       ??_lvd_flag_set 000F  
                 __size_of_spin_left 0026           set_motor_speed@motor_speed 0015  
                          ?_high_isr 0001                  __end_of_StatusReset 1AD2  
                            _PORtask 12D2                              _WDTtask 19E2  
                            _BusyADC 1AB8                              _ReadADC 1A8C  
                         ??_OpenPWM1 000F                           ??_OpenPWM2 000F  
                       ??_STKFULtask 0014                              _SeeLine 001F  
                 __size_of_turn_left 0026                              _OpenADC 15DC  
                    __size_of_LVtrap 0020                              __Hparam 0000  
                __size_of_SetChanADC 0016                              __Lparam 0000  
                          ?_set_leds 0001                 __size_of_reset_codes 0042  
                       __psmallconst 1000                              __pcinit 1A9C  
                            _isWDTTO 1916                              __ramtop 1000  
                __size_of_OpenTimer2 001C                              __ptext0 167C  
                            __ptext1 140E                              __ptext2 1080  
                            __ptext3 1962                              __ptext4 17A2  
                            __ptext5 1858                              __ptext6 187E  
                            __ptext7 18A4                              __ptext8 18CA  
                            __ptext9 18F0                      __size_of_printf 002E  
                       __size_of_adc 0028                            _T2CONbits 000FCA  
             __size_of_check_sensors 00C4                              _openLVD 1A36  
                 __end_of_STKFULtask 19E2                    __end_of_openPORTA 1AEA  
                  __end_of_openPORTB 1AE4                    __end_of_openPORTD 1AF0  
                  __end_of_openPORTE 1AD8                       OpenADC@config2 000F  
                         ??_high_isr 0001                       __pintcode_body 148C  
               end_of_initialization 1AA4                              int_func 148C  
                         ??_set_leds 000F                            _RCSTAbits 000FAB  
                            printf@c 0013                              printf@f 000F  
                  __end_of_spin_left 1916               __size_of_WaitOneSecond 003C  
                          _RESETtask 19FE              __size_of_initialization 0090  
                          _PORTCbits 000F82                            _PORTDbits 000F83  
                          _PORTEbits 000F84                       set_osc_32MHz@i 000F  
                        _StatusReset 1ACC                    __end_of_turn_left 18A4  
                          _TRISBbits 000F93                            _TRISCbits 000F94  
                         _spin_right 18CA                         ??_ConvertADC 000F  
                          _TXSTAbits 000FAC                        _check_sensors 114E  
          __size_of_motors_brake_all 0022                       __end_of_LVtrap 19C4  
               __end_of_lvd_flag_set 1ACC        __size_of_follow_simple_curves 0034  
                         ?_RESETtask 0001                           _turn_right 1858  
                 __end_of_ConvertADC 1AF4                         ??_SetChanADC 000F  
                     __end_of_printf 1804                  start_initialization 1A9C  
                          _SetDCPWM1 1730                            _SetDCPWM2 16F6  
                    SetDCPWM1@DCycle 0013                          __end_of_adc 1858  
                    SetDCPWM2@DCycle 0013                        _WaitOneSecond 16BA  
                       ??_OpenTimer2 000F                            _OpenUSART 150A  
           __size_of_openPORTCforPWM 000E                       ?_check_sensors 0001  
                   __CFG_OSC$INTIO67 000000                             ??_LVtrap 0014  
                 __end_of_SetChanADC 1A7A                    __size_of_OpenPWM1 0012  
                  __size_of_OpenPWM2 0038                             ??_printf 0011  
                         gtrap@count 000F                   __end_of_OpenTimer2 1A36  
                        __pbssCOMRAM 001D                             ?_BORtask 0001  
                         ?_SetDCPWM1 000F                           ?_SetDCPWM2 000F  
                     ?_WaitOneSecond 0001                          ?_spin_right 0001  
                      PORtask@count1 0014                        PORtask@count2 0018  
             __size_of_set_osc_32MHz 002C                        ?_straight_fwd 0001  
           set_motor_speed@the_motor 0019                             ?_PORtask 0001  
                           ?_WDTtask 0001                           ?_OpenUSART 000F  
                  __size_of_high_isr 1502                             ?_BusyADC 0001  
                           ?_ReadADC 000F                    OpenADC@portconfig 0010  
                           ?_OpenADC 000F                            __pintcode 0008  
                        ??_RESETtask 0014                       _initialization 137E  
                  __size_of_set_leds 007E                             ?_isWDTTO 0001  
                        ?_turn_right 0001                          __smallconst 1000  
                           ?_openLVD 0001             __size_of_set_motor_speed 00C0  
                     ??_straight_fwd 001D                       __size_of_isBOR 0016  
                     __size_of_isPOR 0026                       __size_of_gtrap 0062  
                     __size_of_putch 0002               __size_of_motor_control 00CE  
                    ??_check_sensors 0016                            _openPORTA 1AE4  
                          _openPORTB 1ADE                            _openPORTD 1AEA  
                          _openPORTE 1AD2                        OpenADC@config 0013  
              __size_of_lvd_flag_set 0006                             _IPR2bits 000FA2  
                           _PIE1bits 000F9D                             _PIE2bits 000FA0  
                      ??_reset_codes 001C                     _motors_brake_all 1962  
                           _PIR1bits 000F9E                             _PIR2bits 000FA1  
             __end_of_initialization 140E                             _RCONbits 000FD0  
                  ??_openPORTCforPWM 000F                        _set_osc_32MHz 1804  
                __size_of_spin_right 0026  __end_ofset_motor_speed@motor_speeds 100F  
        set_motor_speed@motor_speeds 1001                          _HLVDCONbits 000FD2  
                          _threshold 001D                            _spin_left 18F0  
                         _ADCON0bits 000FC2                         ?_StatusReset 0001  
                    ??_WaitOneSecond 000F                          ??_SetDCPWM1 0011  
                        ??_SetDCPWM2 0011                     __size_of_BORtask 0020  
                       _lvd_flag_set 1AC6                            _turn_left 187E  
                   __size_of_PORtask 00AC                          ??_OpenUSART 0011  
                 SetDCPWM1@dutycycle 000F                           ?_openPORTA 0001  
                         ?_openPORTB 0001                           ?_openPORTD 0001  
                         ?_openPORTE 0001                     __size_of_WDTtask 001C  
                    OpenUSART@config 0011                  __size_of_turn_right 0026  
                           _OpenPWM1 1A7A                             _OpenPWM2 176A  
                   __size_of_BusyADC 000E                     __size_of_ReadADC 0010  
                           __Hrparam 0000                     __size_of_OpenADC 005E  
                    ?_initialization 0001                             __Lrparam 0000  
                 SetDCPWM2@dutycycle 000F                       ?_set_osc_32MHz 0001  
                __end_of_reset_codes 167C                        _motor_control 1080  
                         ?_spin_left 0001                       OpenPWM2@ccp2mx 0010  
                   __size_of_isWDTTO 0026                       WaitOneSecond@i 0010  
      set_motor_speed@speed_modifier 0016                       OpenPWM1@period 000F  
                     OpenPWM2@period 000F                     __size_of_openLVD 0018  
       __end_of_follow_simple_curves 17D6                             __ptext10 1212  
                           __ptext11 16BA                             __ptext20 19C4  
                           __ptext12 1AC6                             __ptext21 19FE  
                           __ptext13 137E                             __ptext30 1A36  
                           __ptext22 12D2                             __ptext14 1804  
                           __ptext31 16F6                             __ptext23 1984  
                           __ptext15 163A                             __ptext40 1A64  
                           __ptext32 1730                             __ptext24 1ACC  
                           __ptext16 1916                             __ptext41 1A8C  
                           __ptext33 150A                             __ptext25 1AD2  
                           __ptext17 193C                             __ptext42 1AF0  
                           __ptext34 1A1A                             __ptext26 1AD8  
                           __ptext18 1A4E                             __ptext43 1AB8  
                           __ptext35 176A                             __ptext27 1AAA  
                           __ptext19 19E2                             __ptext44 19A4  
                           __ptext36 1A7A                             __ptext28 1ADE  
                           __ptext45 17D6                             __ptext37 15DC  
                           __ptext29 1AE4                             __ptext46 1AF4  
                           __ptext38 114E                             __ptext47 1AEA  
                           __ptext39 1830                             __ptext48 157A  
                         ?_turn_left 0001                             _high_isr 0008  
          set_motor_speed@duty_cycle 001B                    ??_set_motor_speed 0018  
                      __size_of_main 003E                             _lvd_flag 0020  
                           _set_leds 140E                 __end_of_straight_fwd 18CA  
                     ?_motor_control 0001                          _OSCTUNEbits 000F9B  
                         _INTCONbits 000FF2                       OpenUSART@spbrg 000F  
                       ??_spin_right 001D                             intlevel2 0000  
                        ??_openPORTA 000F                          ??_openPORTB 000F  
                        ??_openPORTD 000F                          ??_openPORTE 000F  
                  _openPORTCforUSART 1AD8                    SetChanADC@channel 0010  
                    ??_set_osc_32MHz 000F                          _reset_codes 163A  
                         _OSCCONbits 000FD3                   ?_openPORTCforUSART 0001  
                           printf@ap 0011                   __end_of_spin_right 18F0  
                ??_openPORTCforUSART 000F                          ??_spin_left 001D  
                       ??_turn_right 001D             __end_of_motors_brake_all 1984  
               __size_of_StatusReset 0006                          ??_turn_left 001D  
                    _openPORTCforPWM 1AAA            __end_of_openPORTCforUSART 1ADE  
                 __end_of_turn_right 187E                           _STKFULtask 19C4  
                    ??_motor_control 001D  
